---
triple:          'arm64-apple-darwin'
binary-path:     '/Users/hwi/Develop/Algorithm/mp3/mp3_20201588'
relocations:
  - { offsetInCU: 0x7BAC, offset: 0x7BAC, size: 0x8, addend: 0x0, symName: __ZNSt3__16copy_nB7v160006IPKcmPcEENS_9enable_ifIXsr33__is_cpp17_random_access_iteratorIT_EE5valueET1_E4typeES5_T0_S6_, symObjAddr: 0x5F38, symBinAddr: 0x100006A34, symSize: 0x44 }
  - { offsetInCU: 0x7C53, offset: 0x7C53, size: 0x8, addend: 0x0, symName: __ZNSt3__124__put_character_sequenceB7v160006IcNS_11char_traitsIcEEEERNS_13basic_ostreamIT_T0_EES7_PKS4_m, symObjAddr: 0x6958, symBinAddr: 0x100007454, symSize: 0x1F4 }
  - { offsetInCU: 0xBC2F, offset: 0xBC2F, size: 0x8, addend: 0x0, symName: __ZNSt3__117__floyd_sift_downB7v160006INS_17_ClassicAlgPolicyER4compNS_11__wrap_iterIPP4NodeEEEET1_S9_OT0_NS_15iterator_traitsIS9_E15difference_typeE, symObjAddr: 0xBEF8, symBinAddr: 0x10000C9F4, symSize: 0x154 }
  - { offsetInCU: 0xC2AB, offset: 0xC2AB, size: 0x8, addend: 0x0, symName: __ZNSt3__113__fill_n_trueB7v160006INS_8__bitsetILm1ELm8EEEEEvNS_14__bit_iteratorIT_Lb0EXLi0EEEENS4_9size_typeE, symObjAddr: 0xD4EC, symBinAddr: 0x10000DFE8, symSize: 0x160 }
  - { offsetInCU: 0xC370, offset: 0xC370, size: 0x8, addend: 0x0, symName: __ZNSt3__114__fill_n_falseB7v160006INS_8__bitsetILm1ELm8EEEEEvNS_14__bit_iteratorIT_Lb0EXLi0EEEENS4_9size_typeE, symObjAddr: 0xD64C, symBinAddr: 0x10000E148, symSize: 0x15C }
  - { offsetInCU: 0x1094E, offset: 0x1094E, size: 0x8, addend: 0x0, symName: __ZNSt3__1plB7v160006IcNS_11char_traitsIcEENS_9allocatorIcEEEENS_12basic_stringIT_T0_T1_EERKS9_PKS6_, symObjAddr: 0x2EC, symBinAddr: 0x100000DE8, symSize: 0x11C }
  - { offsetInCU: 0x11797, offset: 0x11797, size: 0x8, addend: 0x0, symName: __ZNSt3__1lsB7v160006INS_11char_traitsIcEEEERNS_13basic_ostreamIcT_EES6_PKc, symObjAddr: 0x10FC, symBinAddr: 0x100001BF8, symSize: 0x48 }
  - { offsetInCU: 0x117DD, offset: 0x117DD, size: 0x8, addend: 0x0, symName: __ZNSt3__14endlB7v160006IcNS_11char_traitsIcEEEERNS_13basic_ostreamIT_T0_EES7_, symObjAddr: 0x1170, symBinAddr: 0x100001C6C, symSize: 0x58 }
  - { offsetInCU: 0x1181D, offset: 0x1181D, size: 0x8, addend: 0x0, symName: __ZNSt3__17getlineB7v160006IcNS_11char_traitsIcEENS_9allocatorIcEEEERNS_13basic_istreamIT_T0_EES9_RNS_12basic_stringIS6_S7_T1_EE, symObjAddr: 0x1254, symBinAddr: 0x100001D50, symSize: 0x5C }
  - { offsetInCU: 0x11875, offset: 0x11875, size: 0x8, addend: 0x0, symName: __ZNSt3__1neB7v160006IPcEEbRKNS_11__wrap_iterIT_EES6_, symObjAddr: 0x13DC, symBinAddr: 0x100001ED8, symSize: 0x34 }
  - { offsetInCU: 0x11A52, offset: 0x11A52, size: 0x8, addend: 0x0, symName: __ZNSt3__1neB7v160006ERKNS_19__hash_map_iteratorINS_15__hash_iteratorIPNS_11__hash_nodeINS_17__hash_value_typeIciEEPvEEEEEESB_, symObjAddr: 0x160C, symBinAddr: 0x100002108, symSize: 0x30 }
  - { offsetInCU: 0x11BFA, offset: 0x11BFA, size: 0x8, addend: 0x0, symName: __ZNSt3__1neB7v160006ERKNS_19__hash_map_iteratorINS_15__hash_iteratorIPNS_11__hash_nodeINS_17__hash_value_typeIcNS_12basic_stringIcNS_11char_traitsIcEENS_9allocatorIcEEEEEEPvEEEEEESH_, symObjAddr: 0x1998, symBinAddr: 0x100002494, symSize: 0x30 }
  - { offsetInCU: 0x11FF9, offset: 0x11FF9, size: 0x8, addend: 0x0, symName: __ZNSt3__1lsB7v160006IcNS_11char_traitsIcEENS_9allocatorIcEEEERNS_13basic_ostreamIT_T0_EES9_RKNS_12basic_stringIS6_S7_T1_EE, symObjAddr: 0x1B60, symBinAddr: 0x10000265C, symSize: 0x4C }
  - { offsetInCU: 0x12051, offset: 0x12051, size: 0x8, addend: 0x0, symName: __ZNSt3__1lsB7v160006INS_11char_traitsIcEEEERNS_13basic_ostreamIcT_EES6_c, symObjAddr: 0x1BAC, symBinAddr: 0x1000026A8, symSize: 0x34 }
  - { offsetInCU: 0x120AD, offset: 0x120AD, size: 0x8, addend: 0x0, symName: __ZNSt3__13minB7v160006IiEERKT_S3_S3_, symObjAddr: 0x28E8, symBinAddr: 0x1000033E4, symSize: 0x2C }
  - { offsetInCU: 0x120F0, offset: 0x120F0, size: 0x8, addend: 0x0, symName: __ZNSt3__118__debug_db_erase_cB7v160006INS_6vectorIP4NodeNS_9allocatorIS3_EEEEEEvPT_, symObjAddr: 0x2DF4, symBinAddr: 0x1000038F0, symSize: 0x10 }
  - { offsetInCU: 0x12121, offset: 0x12121, size: 0x8, addend: 0x0, symName: __ZNSt3__112__to_addressB7v160006IP4NodeEEPT_S4_, symObjAddr: 0x2F38, symBinAddr: 0x100003A34, symSize: 0x14 }
  - { offsetInCU: 0x12156, offset: 0x12156, size: 0x8, addend: 0x0, symName: __ZNSt3__130__libcpp_is_constant_evaluatedB7v160006Ev, symObjAddr: 0x309C, symBinAddr: 0x100003B98, symSize: 0xC }
  - { offsetInCU: 0x12173, offset: 0x12173, size: 0x8, addend: 0x0, symName: __ZNSt3__119__libcpp_deallocateB7v160006EPvmm, symObjAddr: 0x30A8, symBinAddr: 0x100003BA4, symSize: 0x30 }
  - { offsetInCU: 0x121BB, offset: 0x121BB, size: 0x8, addend: 0x0, symName: __ZNSt3__127__do_deallocate_handle_sizeB7v160006IJEEEvPvmDpT_, symObjAddr: 0x30D8, symBinAddr: 0x100003BD4, symSize: 0x28 }
  - { offsetInCU: 0x121F9, offset: 0x121F9, size: 0x8, addend: 0x0, symName: __ZNSt3__124__libcpp_operator_deleteB7v160006IJPvEEEvDpT_, symObjAddr: 0x3100, symBinAddr: 0x100003BFC, symSize: 0x24 }
  - { offsetInCU: 0x1222E, offset: 0x1222E, size: 0x8, addend: 0x0, symName: __ZNSt3__116__constrain_hashB7v160006Emm, symObjAddr: 0x382C, symBinAddr: 0x100004328, symSize: 0x98 }
  - { offsetInCU: 0x1231F, offset: 0x1231F, size: 0x8, addend: 0x0, symName: __ZNSt3__117__libcpp_allocateB7v160006Emm, symObjAddr: 0x3F28, symBinAddr: 0x100004A24, symSize: 0x28 }
  - { offsetInCU: 0x1235C, offset: 0x1235C, size: 0x8, addend: 0x0, symName: __ZNSt3__121__libcpp_operator_newB7v160006IJmEEEPvDpT_, symObjAddr: 0x3F68, symBinAddr: 0x100004A64, symSize: 0x24 }
  - { offsetInCU: 0x12395, offset: 0x12395, size: 0x8, addend: 0x0, symName: __ZNSt3__13maxB7v160006ImEERKT_S3_S3_, symObjAddr: 0x46A8, symBinAddr: 0x1000051A4, symSize: 0x2C }
  - { offsetInCU: 0x123D8, offset: 0x123D8, size: 0x8, addend: 0x0, symName: __ZNSt3__116__is_hash_power2B7v160006Em, symObjAddr: 0x46D4, symBinAddr: 0x1000051D0, symSize: 0x50 }
  - { offsetInCU: 0x12404, offset: 0x12404, size: 0x8, addend: 0x0, symName: __ZNSt3__116__next_hash_pow2B7v160006Em, symObjAddr: 0x4BE4, symBinAddr: 0x1000056E0, symSize: 0x6C }
  - { offsetInCU: 0x12430, offset: 0x12430, size: 0x8, addend: 0x0, symName: __ZNSt3__125__debug_db_invalidate_allB7v160006INS_12__hash_tableINS_17__hash_value_typeIcNS_12basic_stringIcNS_11char_traitsIcEENS_9allocatorIcEEEEEENS_22__unordered_map_hasherIcS9_NS_4hashIcEENS_8equal_toIcEELb1EEENS_21__unordered_map_equalIcS9_SE_SC_Lb1EEENS6_IS9_EEEEEEvPT_, symObjAddr: 0x4C50, symBinAddr: 0x10000574C, symSize: 0x10 }
  - { offsetInCU: 0x1247D, offset: 0x1247D, size: 0x8, addend: 0x0, symName: __ZNSt3__112__libcpp_clzB7v160006Em, symObjAddr: 0x5030, symBinAddr: 0x100005B2C, symSize: 0x1C }
  - { offsetInCU: 0x124A9, offset: 0x124A9, size: 0x8, addend: 0x0, symName: __ZNSt3__13maxB7v160006ImNS_6__lessImmEEEERKT_S5_S5_T0_, symObjAddr: 0x504C, symBinAddr: 0x100005B48, symSize: 0x54 }
  - { offsetInCU: 0x1253E, offset: 0x1253E, size: 0x8, addend: 0x0, symName: __ZNSt3__112__to_addressB7v160006IcEEPT_S2_, symObjAddr: 0x54BC, symBinAddr: 0x100005FB8, symSize: 0x14 }
  - { offsetInCU: 0x12573, offset: 0x12573, size: 0x8, addend: 0x0, symName: __ZNSt3__118__constexpr_strlenB7v160006EPKc, symObjAddr: 0x5624, symBinAddr: 0x100006120, symSize: 0x24 }
  - { offsetInCU: 0x1259F, offset: 0x1259F, size: 0x8, addend: 0x0, symName: __ZNSt3__119__debug_db_insert_cB7v160006INS_12basic_stringIcNS_11char_traitsIcEENS_9allocatorIcEEEEEEvPT_, symObjAddr: 0x5B88, symBinAddr: 0x100006684, symSize: 0x10 }
  - { offsetInCU: 0x125D0, offset: 0x125D0, size: 0x8, addend: 0x0, symName: __ZNSt3__120__throw_length_errorB7v160006EPKc, symObjAddr: 0x5C58, symBinAddr: 0x100006754, symSize: 0x64 }
  - { offsetInCU: 0x1262B, offset: 0x1262B, size: 0x8, addend: 0x0, symName: __ZNSt3__14copyB7v160006IPKcPcEET0_T_S5_S4_, symObjAddr: 0x5F7C, symBinAddr: 0x100006A78, symSize: 0x40 }
  - { offsetInCU: 0x12685, offset: 0x12685, size: 0x8, addend: 0x0, symName: __ZNSt3__16__copyB7v160006INS_17_ClassicAlgPolicyEPKcS3_PcEENS_4pairIT0_T2_EES6_T1_S7_, symObjAddr: 0x5FBC, symBinAddr: 0x100006AB8, symSize: 0x44 }
  - { offsetInCU: 0x126F1, offset: 0x126F1, size: 0x8, addend: 0x0, symName: __ZNSt3__123__dispatch_copy_or_moveB7v160006INS_17_ClassicAlgPolicyENS_11__copy_loopIS1_EENS_14__copy_trivialEPKcS6_PcEENS_4pairIT2_T4_EES9_T3_SA_, symObjAddr: 0x6000, symBinAddr: 0x100006AFC, symSize: 0x54 }
  - { offsetInCU: 0x1276F, offset: 0x1276F, size: 0x8, addend: 0x0, symName: __ZNSt3__121__unwrap_and_dispatchB7v160006INS_10__overloadINS_11__copy_loopINS_17_ClassicAlgPolicyEEENS_14__copy_trivialEEEPKcS8_PcLi0EEENS_4pairIT0_T2_EESB_T1_SC_, symObjAddr: 0x6054, symBinAddr: 0x100006B50, symSize: 0xB4 }
  - { offsetInCU: 0x127FD, offset: 0x127FD, size: 0x8, addend: 0x0, symName: __ZNSt3__114__unwrap_rangeB7v160006IPKcS2_EENS_4pairIT0_S4_EET_S6_, symObjAddr: 0x6108, symBinAddr: 0x100006C04, symSize: 0x60 }
  - { offsetInCU: 0x1293C, offset: 0x1293C, size: 0x8, addend: 0x0, symName: __ZNSt3__113__unwrap_iterB7v160006IPcNS_18__unwrap_iter_implIS1_Lb1EEELi0EEEDTclsrT0_8__unwrapclsr3stdE7declvalIT_EEEES5_, symObjAddr: 0x61B0, symBinAddr: 0x100006CAC, symSize: 0x24 }
  - { offsetInCU: 0x12980, offset: 0x12980, size: 0x8, addend: 0x0, symName: __ZNSt3__19make_pairB7v160006IPKcPcEENS_4pairINS_18__unwrap_ref_decayIT_E4typeENS5_IT0_E4typeEEEOS6_OS9_, symObjAddr: 0x61D4, symBinAddr: 0x100006CD0, symSize: 0x38 }
  - { offsetInCU: 0x129CF, offset: 0x129CF, size: 0x8, addend: 0x0, symName: __ZNSt3__114__rewrap_rangeB7v160006IPKcS2_EET_S3_T0_, symObjAddr: 0x620C, symBinAddr: 0x100006D08, symSize: 0x2C }
  - { offsetInCU: 0x12A1B, offset: 0x12A1B, size: 0x8, addend: 0x0, symName: __ZNSt3__113__rewrap_iterB7v160006IPcS1_NS_18__unwrap_iter_implIS1_Lb1EEEEET_S4_T0_, symObjAddr: 0x6238, symBinAddr: 0x100006D34, symSize: 0x50 }
  - { offsetInCU: 0x12A70, offset: 0x12A70, size: 0x8, addend: 0x0, symName: __ZNSt3__19make_pairB7v160006IPKcS2_EENS_4pairINS_18__unwrap_ref_decayIT_E4typeENS4_IT0_E4typeEEEOS5_OS8_, symObjAddr: 0x6288, symBinAddr: 0x100006D84, symSize: 0x38 }
  - { offsetInCU: 0x12ABF, offset: 0x12ABF, size: 0x8, addend: 0x0, symName: __ZNSt3__113__unwrap_iterB7v160006IPKcNS_18__unwrap_iter_implIS2_Lb1EEELi0EEEDTclsrT0_8__unwrapclsr3stdE7declvalIT_EEEES6_, symObjAddr: 0x62C0, symBinAddr: 0x100006DBC, symSize: 0x24 }
  - { offsetInCU: 0x12C03, offset: 0x12C03, size: 0x8, addend: 0x0, symName: __ZNSt3__112__to_addressB7v160006IKcEEPT_S3_, symObjAddr: 0x6378, symBinAddr: 0x100006E74, symSize: 0x14 }
  - { offsetInCU: 0x12C38, offset: 0x12C38, size: 0x8, addend: 0x0, symName: __ZNSt3__119__copy_trivial_implB7v160006IKccEENS_4pairIPT_PT0_EES4_S4_S6_, symObjAddr: 0x638C, symBinAddr: 0x100006E88, symSize: 0x7C }
  - { offsetInCU: 0x12CA0, offset: 0x12CA0, size: 0x8, addend: 0x0, symName: __ZNSt3__19make_pairB7v160006IRPKcPcEENS_4pairINS_18__unwrap_ref_decayIT_E4typeENS6_IT0_E4typeEEEOS7_OSA_, symObjAddr: 0x6408, symBinAddr: 0x100006F04, symSize: 0x38 }
  - { offsetInCU: 0x12D42, offset: 0x12D42, size: 0x8, addend: 0x0, symName: __ZNSt3__113__rewrap_iterB7v160006IPKcS2_NS_18__unwrap_iter_implIS2_Lb1EEEEET_S5_T0_, symObjAddr: 0x64D4, symBinAddr: 0x100006FD0, symSize: 0x50 }
  - { offsetInCU: 0x12DCA, offset: 0x12DCA, size: 0x8, addend: 0x0, symName: __ZNSt3__16fill_nB7v160006IPcmcEET_S2_T0_RKT1_, symObjAddr: 0x666C, symBinAddr: 0x100007168, symSize: 0x44 }
  - { offsetInCU: 0x12E2D, offset: 0x12E2D, size: 0x8, addend: 0x0, symName: __ZNSt3__18__fill_nB7v160006IPcmcEET_S2_T0_RKT1_, symObjAddr: 0x66B0, symBinAddr: 0x1000071AC, symSize: 0x64 }
  - { offsetInCU: 0x12E90, offset: 0x12E90, size: 0x8, addend: 0x0, symName: __ZNSt3__121__convert_to_integralB7v160006Em, symObjAddr: 0x6714, symBinAddr: 0x100007210, symSize: 0x14 }
  - { offsetInCU: 0x12EBC, offset: 0x12EBC, size: 0x8, addend: 0x0, symName: __ZNSt3__116__pad_and_outputB7v160006IcNS_11char_traitsIcEEEENS_19ostreambuf_iteratorIT_T0_EES6_PKS4_S8_S8_RNS_8ios_baseES4_, symObjAddr: 0x6B68, symBinAddr: 0x100007664, symSize: 0x248 }
  - { offsetInCU: 0x12F8B, offset: 0x12F8B, size: 0x8, addend: 0x0, symName: __ZNSt3__19use_facetB7v160006INS_5ctypeIcEEEERKT_RKNS_6localeE, symObjAddr: 0x705C, symBinAddr: 0x100007B58, symSize: 0x2C }
  - { offsetInCU: 0x1345A, offset: 0x1345A, size: 0x8, addend: 0x0, symName: __ZNSt3__119__debug_db_insert_cB7v160006INS_13unordered_mapIciNS_4hashIcEENS_8equal_toIcEENS_9allocatorINS_4pairIKciEEEEEEEEvPT_, symObjAddr: 0x7328, symBinAddr: 0x100007E24, symSize: 0x10 }
  - { offsetInCU: 0x1348B, offset: 0x1348B, size: 0x8, addend: 0x0, symName: __ZNSt3__118__debug_db_erase_cB7v160006INS_12__hash_tableINS_17__hash_value_typeIciEENS_22__unordered_map_hasherIcS3_NS_4hashIcEENS_8equal_toIcEELb1EEENS_21__unordered_map_equalIcS3_S8_S6_Lb1EEENS_9allocatorIS3_EEEEEEvPT_, symObjAddr: 0x7DC8, symBinAddr: 0x1000088C4, symSize: 0x10 }
  - { offsetInCU: 0x134EF, offset: 0x134EF, size: 0x8, addend: 0x0, symName: __ZNSt3__17getlineB7v160006IcNS_11char_traitsIcEENS_9allocatorIcEEEERNS_13basic_istreamIT_T0_EES9_RNS_12basic_stringIS6_S7_T1_EES6_, symObjAddr: 0x8004, symBinAddr: 0x100008B00, symSize: 0x238 }
  - { offsetInCU: 0x135AD, offset: 0x135AD, size: 0x8, addend: 0x0, symName: __ZNSt3__125__debug_db_invalidate_allB7v160006INS_12basic_stringIcNS_11char_traitsIcEENS_9allocatorIcEEEEEEvPT_, symObjAddr: 0x8434, symBinAddr: 0x100008F30, symSize: 0x10 }
  - { offsetInCU: 0x135DE, offset: 0x135DE, size: 0x8, addend: 0x0, symName: __ZNSt3__1eqB7v160006IPcEEbRKNS_11__wrap_iterIT_EES6_, symObjAddr: 0x8574, symBinAddr: 0x100009070, symSize: 0x48 }
  - { offsetInCU: 0x136A5, offset: 0x136A5, size: 0x8, addend: 0x0, symName: __ZNSt3__125__debug_db_invalidate_allB7v160006INS_12__hash_tableINS_17__hash_value_typeIciEENS_22__unordered_map_hasherIcS3_NS_4hashIcEENS_8equal_toIcEELb1EEENS_21__unordered_map_equalIcS3_S8_S6_Lb1EEENS_9allocatorIS3_EEEEEEvPT_, symObjAddr: 0x9C4C, symBinAddr: 0x10000A748, symSize: 0x10 }
  - { offsetInCU: 0x136D6, offset: 0x136D6, size: 0x8, addend: 0x0, symName: __ZNSt3__119__debug_db_insert_cB7v160006INS_6vectorIP4NodeNS_9allocatorIS3_EEEEEEvPT_, symObjAddr: 0xA134, symBinAddr: 0x10000AC30, symSize: 0x10 }
  - { offsetInCU: 0x13707, offset: 0x13707, size: 0x8, addend: 0x0, symName: __ZNSt3__1neB7v160006ERKNS_15__hash_iteratorIPNS_11__hash_nodeINS_17__hash_value_typeIciEEPvEEEES9_, symObjAddr: 0xA24C, symBinAddr: 0x10000AD48, symSize: 0x34 }
  - { offsetInCU: 0x13744, offset: 0x13744, size: 0x8, addend: 0x0, symName: __ZNSt3__1eqB7v160006ERKNS_15__hash_iteratorIPNS_11__hash_nodeINS_17__hash_value_typeIciEEPvEEEES9_, symObjAddr: 0xA280, symBinAddr: 0x10000AD7C, symSize: 0x30 }
  - { offsetInCU: 0x13781, offset: 0x13781, size: 0x8, addend: 0x0, symName: __ZNSt3__19push_heapB7v160006INS_11__wrap_iterIPP4NodeEE4compEEvT_S7_T0_, symObjAddr: 0xA33C, symBinAddr: 0x10000AE38, symSize: 0x40 }
  - { offsetInCU: 0x137D7, offset: 0x137D7, size: 0x8, addend: 0x0, symName: __ZNSt3__13minB7v160006ImEERKT_S3_S3_, symObjAddr: 0xA9A8, symBinAddr: 0x10000B4A4, symSize: 0x2C }
  - { offsetInCU: 0x13A1B, offset: 0x13A1B, size: 0x8, addend: 0x0, symName: __ZNSt3__13minB7v160006ImNS_6__lessImmEEEERKT_S5_S5_T0_, symObjAddr: 0xAA34, symBinAddr: 0x10000B530, symSize: 0x54 }
  - { offsetInCU: 0x13A75, offset: 0x13A75, size: 0x8, addend: 0x0, symName: __ZNSt3__119__allocate_at_leastB7v160006INS_9allocatorIP4NodeEEEENS_19__allocation_resultINS_16allocator_traitsIT_E7pointerEEERS7_m, symObjAddr: 0xABEC, symBinAddr: 0x10000B6E8, symSize: 0x40 }
  - { offsetInCU: 0x13AB8, offset: 0x13AB8, size: 0x8, addend: 0x0, symName: __ZNSt3__142__uninitialized_allocator_move_if_noexceptB7v160006INS_9allocatorIP4NodeEENS_16reverse_iteratorIPS3_EES7_S3_vEET1_RT_T0_SB_S8_, symObjAddr: 0xADCC, symBinAddr: 0x10000B8C8, symSize: 0xE8 }
  - { offsetInCU: 0x13B35, offset: 0x13B35, size: 0x8, addend: 0x0, symName: __ZNSt3__14swapB7v160006IPP4NodeEEvRT_S5_, symObjAddr: 0xAF00, symBinAddr: 0x10000B9FC, symSize: 0x3C }
  - { offsetInCU: 0x13B86, offset: 0x13B86, size: 0x8, addend: 0x0, symName: __ZNSt3__125__debug_db_invalidate_allB7v160006INS_6vectorIP4NodeNS_9allocatorIS3_EEEEEEvPT_, symObjAddr: 0xAFE8, symBinAddr: 0x10000BAE4, symSize: 0x10 }
  - { offsetInCU: 0x13BB7, offset: 0x13BB7, size: 0x8, addend: 0x0, symName: __ZNSt3__1neB7v160006IPP4NodeS3_EEbRKNS_16reverse_iteratorIT_EERKNS4_IT0_EE, symObjAddr: 0xAFF8, symBinAddr: 0x10000BAF4, symSize: 0x48 }
  - { offsetInCU: 0x13C28, offset: 0x13C28, size: 0x8, addend: 0x0, symName: __ZNSt3__114__construct_atB7v160006IP4NodeJS2_EPS2_EEPT_S5_DpOT0_, symObjAddr: 0xB040, symBinAddr: 0x10000BB3C, symSize: 0x2C }
  - { offsetInCU: 0x13C98, offset: 0x13C98, size: 0x8, addend: 0x0, symName: __ZNSt3__112__to_addressB7v160006INS_16reverse_iteratorIPP4NodeEEvEENS_5decayIDTclsr19__to_address_helperIT_EE6__callclsr3stdE7declvalIRKS7_EEEEE4typeES9_, symObjAddr: 0xB06C, symBinAddr: 0x10000BB68, symSize: 0x24 }
  - { offsetInCU: 0x13CCE, offset: 0x13CCE, size: 0x8, addend: 0x0, symName: __ZNSt3__14moveB7v160006INS_16reverse_iteratorIPP4NodeEES5_EET0_T_S7_S6_, symObjAddr: 0xB0D8, symBinAddr: 0x10000BBD4, symSize: 0x78 }
  - { offsetInCU: 0x13D51, offset: 0x13D51, size: 0x8, addend: 0x0, symName: __ZNSt3__16__moveB7v160006INS_17_ClassicAlgPolicyENS_16reverse_iteratorIPP4NodeEES6_S6_EENS_4pairIT0_T2_EES8_T1_S9_, symObjAddr: 0xB1C0, symBinAddr: 0x10000BCBC, symSize: 0x64 }
  - { offsetInCU: 0x13DBD, offset: 0x13DBD, size: 0x8, addend: 0x0, symName: __ZNSt3__123__dispatch_copy_or_moveB7v160006INS_17_ClassicAlgPolicyENS_11__move_loopIS1_EENS_14__move_trivialENS_16reverse_iteratorIPP4NodeEES9_S9_EENS_4pairIT2_T4_EESB_T3_SC_, symObjAddr: 0xB224, symBinAddr: 0x10000BD20, symSize: 0x7C }
  - { offsetInCU: 0x13E3B, offset: 0x13E3B, size: 0x8, addend: 0x0, symName: __ZNSt3__121__unwrap_and_dispatchB7v160006INS_10__overloadINS_11__move_loopINS_17_ClassicAlgPolicyEEENS_14__move_trivialEEENS_16reverse_iteratorIPP4NodeEESB_SB_Li0EEENS_4pairIT0_T2_EESD_T1_SE_, symObjAddr: 0xB2A0, symBinAddr: 0x10000BD9C, symSize: 0x12C }
  - { offsetInCU: 0x13ECB, offset: 0x13ECB, size: 0x8, addend: 0x0, symName: __ZNSt3__114__unwrap_rangeB7v160006INS_16reverse_iteratorIPP4NodeEES5_EENS_4pairIT0_S7_EET_S9_, symObjAddr: 0xB3CC, symBinAddr: 0x10000BEC8, symSize: 0x84 }
  - { offsetInCU: 0x1401F, offset: 0x1401F, size: 0x8, addend: 0x0, symName: __ZNSt3__113__unwrap_iterB7v160006INS_16reverse_iteratorIPP4NodeEENS_18__unwrap_iter_implIS5_Lb0EEELi0EEEDTclsrT0_8__unwrapclsr3stdE7declvalIT_EEEES9_, symObjAddr: 0xB4F0, symBinAddr: 0x10000BFEC, symSize: 0x44 }
  - { offsetInCU: 0x14063, offset: 0x14063, size: 0x8, addend: 0x0, symName: __ZNSt3__19make_pairB7v160006INS_16reverse_iteratorIPP4NodeEES5_EENS_4pairINS_18__unwrap_ref_decayIT_E4typeENS7_IT0_E4typeEEEOS8_OSB_, symObjAddr: 0xB534, symBinAddr: 0x10000C030, symSize: 0x38 }
  - { offsetInCU: 0x140B2, offset: 0x140B2, size: 0x8, addend: 0x0, symName: __ZNSt3__114__rewrap_rangeB7v160006INS_16reverse_iteratorIPP4NodeEES5_EET_S6_T0_, symObjAddr: 0xB56C, symBinAddr: 0x10000C068, symSize: 0x5C }
  - { offsetInCU: 0x140FE, offset: 0x140FE, size: 0x8, addend: 0x0, symName: __ZNSt3__113__rewrap_iterB7v160006INS_16reverse_iteratorIPP4NodeEES5_NS_18__unwrap_iter_implIS5_Lb0EEEEET_S8_T0_, symObjAddr: 0xB5C8, symBinAddr: 0x10000C0C4, symSize: 0x88 }
  - { offsetInCU: 0x14238, offset: 0x14238, size: 0x8, addend: 0x0, symName: __ZNSt3__111__push_heapB7v160006INS_17_ClassicAlgPolicyENS_11__wrap_iterIPP4NodeEE4compEEvT0_S8_RT1_, symObjAddr: 0xB958, symBinAddr: 0x10000C454, symSize: 0x5C }
  - { offsetInCU: 0x142A5, offset: 0x142A5, size: 0x8, addend: 0x0, symName: __ZNSt3__1miB7v160006IPP4NodeS3_EENS_11__wrap_iterIT_E15difference_typeERKS6_RKNS4_IT0_EE, symObjAddr: 0xB9B4, symBinAddr: 0x10000C4B0, symSize: 0x48 }
  - { offsetInCU: 0x142F1, offset: 0x142F1, size: 0x8, addend: 0x0, symName: __ZNSt3__19__sift_upB7v160006INS_17_ClassicAlgPolicyER4compNS_11__wrap_iterIPP4NodeEEEEvT1_S9_OT0_NS_15iterator_traitsIS9_E15difference_typeE, symObjAddr: 0xB9FC, symBinAddr: 0x10000C4F8, symSize: 0x174 }
  - { offsetInCU: 0x143A1, offset: 0x143A1, size: 0x8, addend: 0x0, symName: __ZNSt3__18pop_heapB7v160006INS_11__wrap_iterIPP4NodeEE4compEEvT_S7_T0_, symObjAddr: 0xBD30, symBinAddr: 0x10000C82C, symSize: 0x58 }
  - { offsetInCU: 0x14405, offset: 0x14405, size: 0x8, addend: 0x0, symName: __ZNSt3__110__pop_heapB7v160006INS_17_ClassicAlgPolicyE4compNS_11__wrap_iterIPP4NodeEEEEvT1_S8_RT0_NS_15iterator_traitsIS8_E15difference_typeE, symObjAddr: 0xBDB4, symBinAddr: 0x10000C8B0, symSize: 0x144 }
  - { offsetInCU: 0x144B5, offset: 0x144B5, size: 0x8, addend: 0x0, symName: __ZNSt3__1eqB7v160006IPP4NodeEEbRKNS_11__wrap_iterIT_EES8_, symObjAddr: 0xC04C, symBinAddr: 0x10000CB48, symSize: 0x48 }
  - { offsetInCU: 0x144F8, offset: 0x144F8, size: 0x8, addend: 0x0, symName: __ZNSt3__119__debug_db_insert_cB7v160006INS_13unordered_mapIcNS_12basic_stringIcNS_11char_traitsIcEENS_9allocatorIcEEEENS_4hashIcEENS_8equal_toIcEENS5_INS_4pairIKcS7_EEEEEEEEvPT_, symObjAddr: 0xC294, symBinAddr: 0x10000CD90, symSize: 0x10 }
  - { offsetInCU: 0x14529, offset: 0x14529, size: 0x8, addend: 0x0, symName: __ZNSt3__118__debug_db_erase_cB7v160006INS_12__hash_tableINS_17__hash_value_typeIcNS_12basic_stringIcNS_11char_traitsIcEENS_9allocatorIcEEEEEENS_22__unordered_map_hasherIcS9_NS_4hashIcEENS_8equal_toIcEELb1EEENS_21__unordered_map_equalIcS9_SE_SC_Lb1EEENS6_IS9_EEEEEEvPT_, symObjAddr: 0xCAB4, symBinAddr: 0x10000D5B0, symSize: 0x10 }
  - { offsetInCU: 0x1455A, offset: 0x1455A, size: 0x8, addend: 0x0, symName: __ZNSt3__1neB7v160006ERKNS_15__hash_iteratorIPNS_11__hash_nodeINS_17__hash_value_typeIcNS_12basic_stringIcNS_11char_traitsIcEENS_9allocatorIcEEEEEEPvEEEESF_, symObjAddr: 0xCC38, symBinAddr: 0x10000D734, symSize: 0x34 }
  - { offsetInCU: 0x14597, offset: 0x14597, size: 0x8, addend: 0x0, symName: __ZNSt3__1eqB7v160006ERKNS_15__hash_iteratorIPNS_11__hash_nodeINS_17__hash_value_typeIcNS_12basic_stringIcNS_11char_traitsIcEENS_9allocatorIcEEEEEEPvEEEESF_, symObjAddr: 0xCC6C, symBinAddr: 0x10000D768, symSize: 0x30 }
  - { offsetInCU: 0x145D4, offset: 0x145D4, size: 0x8, addend: 0x0, symName: __ZNSt3__120__throw_out_of_rangeB7v160006EPKc, symObjAddr: 0xCFC8, symBinAddr: 0x10000DAC4, symSize: 0x64 }
  - { offsetInCU: 0x145FE, offset: 0x145FE, size: 0x8, addend: 0x0, symName: __ZNSt3__124__throw_invalid_argumentB7v160006EPKc, symObjAddr: 0xD05C, symBinAddr: 0x10000DB58, symSize: 0x64 }
  - { offsetInCU: 0x14626, offset: 0x14626, size: 0x8, addend: 0x0, symName: __ZNSt3__14fillB7v160006INS_8__bitsetILm1ELm8EEEEEvNS_14__bit_iteratorIT_Lb0EXLi0EEEES5_b, symObjAddr: 0xD168, symBinAddr: 0x10000DC64, symSize: 0x6C }
  - { offsetInCU: 0x14679, offset: 0x14679, size: 0x8, addend: 0x0, symName: __ZNSt3__16fill_nB7v160006INS_8__bitsetILm1ELm8EEEEEvNS_14__bit_iteratorIT_Lb0EXLi0EEEENS4_9size_typeEb, symObjAddr: 0xD3DC, symBinAddr: 0x10000DED8, symSize: 0x94 }
  - { offsetInCU: 0x146CB, offset: 0x146CB, size: 0x8, addend: 0x0, symName: __ZNSt3__1miB7v160006ERKNS_14__bit_iteratorINS_8__bitsetILm1ELm8EEELb0ELm0EEES5_, symObjAddr: 0xD4A4, symBinAddr: 0x10000DFA0, symSize: 0x48 }
  - { offsetInCU: 0x14708, offset: 0x14708, size: 0x8, addend: 0x0, symName: __ZNSt3__16fill_nB7v160006IPmmmEET_S2_T0_RKT1_, symObjAddr: 0xD7A8, symBinAddr: 0x10000E2A4, symSize: 0x44 }
  - { offsetInCU: 0x1476B, offset: 0x1476B, size: 0x8, addend: 0x0, symName: __ZNSt3__112__to_addressB7v160006ImEEPT_S2_, symObjAddr: 0xD7EC, symBinAddr: 0x10000E2E8, symSize: 0x14 }
  - { offsetInCU: 0x147A0, offset: 0x147A0, size: 0x8, addend: 0x0, symName: __ZNSt3__18__fill_nB7v160006IPmmmEET_S2_T0_RKT1_, symObjAddr: 0xD800, symBinAddr: 0x10000E2FC, symSize: 0x64 }
  - { offsetInCU: 0x14803, offset: 0x14803, size: 0x8, addend: 0x0, symName: __ZNSt3__16fill_nB7v160006IPmmiEET_S2_T0_RKT1_, symObjAddr: 0xD864, symBinAddr: 0x10000E360, symSize: 0x44 }
  - { offsetInCU: 0x14866, offset: 0x14866, size: 0x8, addend: 0x0, symName: __ZNSt3__18__fill_nB7v160006IPmmiEET_S2_T0_RKT1_, symObjAddr: 0xD8A8, symBinAddr: 0x10000E3A4, symSize: 0x64 }
  - { offsetInCU: 0x148C9, offset: 0x148C9, size: 0x8, addend: 0x0, symName: __ZNSt3__1neB7v160006ERKNS_21__hash_const_iteratorIPNS_11__hash_nodeINS_17__hash_value_typeINS_12basic_stringIcNS_11char_traitsIcEENS_9allocatorIcEEEEcEEPvEEEESF_, symObjAddr: 0xDA20, symBinAddr: 0x10000E51C, symSize: 0x34 }
  - { offsetInCU: 0x14906, offset: 0x14906, size: 0x8, addend: 0x0, symName: __ZNSt3__1eqB7v160006ERKNS_21__hash_const_iteratorIPNS_11__hash_nodeINS_17__hash_value_typeINS_12basic_stringIcNS_11char_traitsIcEENS_9allocatorIcEEEEcEEPvEEEESF_, symObjAddr: 0xDC40, symBinAddr: 0x10000E73C, symSize: 0x30 }
  - { offsetInCU: 0x14943, offset: 0x14943, size: 0x8, addend: 0x0, symName: __ZNSt3__116__do_string_hashB7v160006IPKcEEmT_S3_, symObjAddr: 0xDEB8, symBinAddr: 0x10000E9B4, symSize: 0x3C }
  - { offsetInCU: 0x14989, offset: 0x14989, size: 0x8, addend: 0x0, symName: __ZNSt3__110__loadwordB7v160006ImEET_PKv, symObjAddr: 0xE8AC, symBinAddr: 0x10000F3A8, symSize: 0x20 }
  - { offsetInCU: 0x149CC, offset: 0x149CC, size: 0x8, addend: 0x0, symName: __ZNSt3__14swapB7v160006ImEEvRT_S2_, symObjAddr: 0xEA68, symBinAddr: 0x10000F564, symSize: 0x3C }
  - { offsetInCU: 0x14A1D, offset: 0x14A1D, size: 0x8, addend: 0x0, symName: __ZNSt3__110__loadwordB7v160006IjEET_PKv, symObjAddr: 0xEAF8, symBinAddr: 0x10000F5F4, symSize: 0x20 }
  - { offsetInCU: 0x14A60, offset: 0x14A60, size: 0x8, addend: 0x0, symName: __ZNSt3__1eqB7v160006INS_9allocatorIcEEEEbRKNS_12basic_stringIcNS_11char_traitsIcEET_EES9_, symObjAddr: 0xEDC4, symBinAddr: 0x10000F8C0, symSize: 0x148 }
  - { offsetInCU: 0x14AD3, offset: 0x14AD3, size: 0x8, addend: 0x0, symName: __ZNSt3__118__constexpr_memcmpB7v160006IcEEiPKT_S3_m, symObjAddr: 0xEF8C, symBinAddr: 0x10000FA88, symSize: 0x34 }
  - { offsetInCU: 0x14B57, offset: 0x14B57, size: 0x8, addend: 0x0, symName: __ZNSt3__1neB7v160006ERKNS_19__hash_map_iteratorINS_15__hash_iteratorIPNS_11__hash_nodeINS_17__hash_value_typeINS_12basic_stringIcNS_11char_traitsIcEENS_9allocatorIcEEEEcEEPvEEEEEESH_, symObjAddr: 0xF038, symBinAddr: 0x10000FB34, symSize: 0x30 }
  - { offsetInCU: 0x14B94, offset: 0x14B94, size: 0x8, addend: 0x0, symName: __ZNSt3__1neB7v160006ERKNS_15__hash_iteratorIPNS_11__hash_nodeINS_17__hash_value_typeINS_12basic_stringIcNS_11char_traitsIcEENS_9allocatorIcEEEEcEEPvEEEESF_, symObjAddr: 0xF6FC, symBinAddr: 0x1000101F8, symSize: 0x34 }
  - { offsetInCU: 0x14BD1, offset: 0x14BD1, size: 0x8, addend: 0x0, symName: __ZNSt3__1eqB7v160006ERKNS_15__hash_iteratorIPNS_11__hash_nodeINS_17__hash_value_typeINS_12basic_stringIcNS_11char_traitsIcEENS_9allocatorIcEEEEcEEPvEEEESF_, symObjAddr: 0xF730, symBinAddr: 0x10001022C, symSize: 0x30 }
  - { offsetInCU: 0x14C92, offset: 0x14C92, size: 0x8, addend: 0x0, symName: __ZNSt3__125__debug_db_invalidate_allB7v160006INS_12__hash_tableINS_17__hash_value_typeINS_12basic_stringIcNS_11char_traitsIcEENS_9allocatorIcEEEEcEENS_22__unordered_map_hasherIS8_S9_NS_4hashIS8_EENS_8equal_toIS8_EELb1EEENS_21__unordered_map_equalIS8_S9_SE_SC_Lb1EEENS6_IS9_EEEEEEvPT_, symObjAddr: 0x105D0, symBinAddr: 0x1000110CC, symSize: 0x10 }
  - { offsetInCU: 0x14CC3, offset: 0x14CC3, size: 0x8, addend: 0x0, symName: __ZNSt3__119__debug_db_insert_cB7v160006INS_13unordered_mapINS_12basic_stringIcNS_11char_traitsIcEENS_9allocatorIcEEEEcNS_4hashIS7_EENS_8equal_toIS7_EENS5_INS_4pairIKS7_cEEEEEEEEvPT_, symObjAddr: 0x10D70, symBinAddr: 0x10001186C, symSize: 0x10 }
  - { offsetInCU: 0x14CF4, offset: 0x14CF4, size: 0x8, addend: 0x0, symName: __ZNSt3__118__debug_db_erase_cB7v160006INS_12__hash_tableINS_17__hash_value_typeINS_12basic_stringIcNS_11char_traitsIcEENS_9allocatorIcEEEEcEENS_22__unordered_map_hasherIS8_S9_NS_4hashIS8_EENS_8equal_toIS8_EELb1EEENS_21__unordered_map_equalIS8_S9_SE_SC_Lb1EEENS6_IS9_EEEEEEvPT_, symObjAddr: 0x11590, symBinAddr: 0x10001208C, symSize: 0x10 }
  - { offsetInCU: 0x14D25, offset: 0x14D25, size: 0x8, addend: 0x0, symName: __ZNSt3__13minB7v160006IiNS_6__lessIiiEEEERKT_S5_S5_T0_, symObjAddr: 0x11944, symBinAddr: 0x100012440, symSize: 0x54 }
  - { offsetInCU: 0x15137, offset: 0x15137, size: 0x8, addend: 0x0, symName: __ZSt28__throw_bad_array_new_lengthB7v160006v, symObjAddr: 0x3EF4, symBinAddr: 0x1000049F0, symSize: 0x34 }
  - { offsetInCU: 0x1626C, offset: 0x1626C, size: 0x8, addend: 0x0, symName: __ZNSt3__16vectorIP4NodeNS_9allocatorIS2_EEE26__swap_out_circular_bufferERNS_14__split_bufferIS2_RS4_EE, symObjAddr: 0xA7D4, symBinAddr: 0x10000B2D0, symSize: 0x118 }
  - { offsetInCU: 0x18AF5, offset: 0x18AF5, size: 0x8, addend: 0x0, symName: __Z7newNodeciP4NodeS0_, symObjAddr: 0x0, symBinAddr: 0x100000AFC, symSize: 0x74 }
  - { offsetInCU: 0x18B59, offset: 0x18B59, size: 0x8, addend: 0x0, symName: __Z15TreetoHuffTableP4NodeNSt3__112basic_stringIcNS1_11char_traitsIcEENS1_9allocatorIcEEEERNS1_13unordered_mapIcS7_NS1_4hashIcEENS1_8equal_toIcEENS5_INS1_4pairIKcS7_EEEEEE, symObjAddr: 0x74, symBinAddr: 0x100000B70, symSize: 0x150 }
  - { offsetInCU: 0x18B9F, offset: 0x18B9F, size: 0x8, addend: 0x0, symName: __ZNSt3__113unordered_mapIcNS_12basic_stringIcNS_11char_traitsIcEENS_9allocatorIcEEEENS_4hashIcEENS_8equal_toIcEENS4_INS_4pairIKcS6_EEEEEixERSC_, symObjAddr: 0x1C4, symBinAddr: 0x100000CC0, symSize: 0x128 }
  - { offsetInCU: 0x18C03, offset: 0x18C03, size: 0x8, addend: 0x0, symName: __Z16buildHuffmanTreeRKNSt3__112basic_stringIcNS_11char_traitsIcEENS_9allocatorIcEEEE, symObjAddr: 0x414, symBinAddr: 0x100000F10, symSize: 0xB44 }
  - { offsetInCU: 0x19029, offset: 0x19029, size: 0x8, addend: 0x0, symName: __ZNSt3__114basic_ifstreamIcNS_11char_traitsIcEEEC1ERKNS_12basic_stringIcS2_NS_9allocatorIcEEEEj, symObjAddr: 0xF58, symBinAddr: 0x100001A54, symSize: 0x17C }
  - { offsetInCU: 0x19073, offset: 0x19073, size: 0x8, addend: 0x0, symName: __ZNKSt3__19basic_iosIcNS_11char_traitsIcEEEntB7v160006Ev, symObjAddr: 0x10D4, symBinAddr: 0x100001BD0, symSize: 0x28 }
  - { offsetInCU: 0x19099, offset: 0x19099, size: 0x8, addend: 0x0, symName: __ZNSt3__113basic_ostreamIcNS_11char_traitsIcEEElsB7v160006EPFRS3_S4_E, symObjAddr: 0x1144, symBinAddr: 0x100001C40, symSize: 0x2C }
  - { offsetInCU: 0x190CD, offset: 0x190CD, size: 0x8, addend: 0x0, symName: __ZNSt3__112basic_stringIcNS_11char_traitsIcEENS_9allocatorIcEEEC1B7v160006Ev, symObjAddr: 0x11C8, symBinAddr: 0x100001CC4, symSize: 0x2C }
  - { offsetInCU: 0x190F7, offset: 0x190F7, size: 0x8, addend: 0x0, symName: __ZNSt3__113unordered_mapIciNS_4hashIcEENS_8equal_toIcEENS_9allocatorINS_4pairIKciEEEEEC1B7v160006Ev, symObjAddr: 0x11F4, symBinAddr: 0x100001CF0, symSize: 0x2C }
  - { offsetInCU: 0x19126, offset: 0x19126, size: 0x8, addend: 0x0, symName: __ZNSt3__112basic_stringIcNS_11char_traitsIcEENS_9allocatorIcEEEC1B7v160006IDnEEPKc, symObjAddr: 0x1220, symBinAddr: 0x100001D1C, symSize: 0x34 }
  - { offsetInCU: 0x19164, offset: 0x19164, size: 0x8, addend: 0x0, symName: __ZNKSt3__19basic_iosIcNS_11char_traitsIcEEEcvPvB7v160006Ev, symObjAddr: 0x12B0, symBinAddr: 0x100001DAC, symSize: 0x4C }
  - { offsetInCU: 0x1918A, offset: 0x1918A, size: 0x8, addend: 0x0, symName: __ZNSt3__112basic_stringIcNS_11char_traitsIcEENS_9allocatorIcEEEpLB7v160006ERKS5_, symObjAddr: 0x12FC, symBinAddr: 0x100001DF8, symSize: 0x2C }
  - { offsetInCU: 0x191BF, offset: 0x191BF, size: 0x8, addend: 0x0, symName: __ZNSt3__112basic_stringIcNS_11char_traitsIcEENS_9allocatorIcEEE5beginB7v160006Ev, symObjAddr: 0x1328, symBinAddr: 0x100001E24, symSize: 0x60 }
  - { offsetInCU: 0x191E5, offset: 0x191E5, size: 0x8, addend: 0x0, symName: __ZNSt3__112basic_stringIcNS_11char_traitsIcEENS_9allocatorIcEEE3endB7v160006Ev, symObjAddr: 0x1388, symBinAddr: 0x100001E84, symSize: 0x54 }
  - { offsetInCU: 0x1920B, offset: 0x1920B, size: 0x8, addend: 0x0, symName: __ZNKSt3__111__wrap_iterIPcEdeB7v160006Ev, symObjAddr: 0x1410, symBinAddr: 0x100001F0C, symSize: 0x18 }
  - { offsetInCU: 0x19231, offset: 0x19231, size: 0x8, addend: 0x0, symName: __ZNSt3__113unordered_mapIciNS_4hashIcEENS_8equal_toIcEENS_9allocatorINS_4pairIKciEEEEEixERS7_, symObjAddr: 0x1428, symBinAddr: 0x100001F24, symSize: 0x128 }
  - { offsetInCU: 0x19296, offset: 0x19296, size: 0x8, addend: 0x0, symName: __ZNSt3__111__wrap_iterIPcEppB7v160006Ev, symObjAddr: 0x1550, symBinAddr: 0x10000204C, symSize: 0x20 }
  - { offsetInCU: 0x19326, offset: 0x19326, size: 0x8, addend: 0x0, symName: __ZNSt3__114priority_queueIP4NodeNS_6vectorIS2_NS_9allocatorIS2_EEEE4compEC1B7v160006Ev, symObjAddr: 0x1570, symBinAddr: 0x10000206C, symSize: 0x2C }
  - { offsetInCU: 0x19350, offset: 0x19350, size: 0x8, addend: 0x0, symName: __ZNSt3__113unordered_mapIciNS_4hashIcEENS_8equal_toIcEENS_9allocatorINS_4pairIKciEEEEE5beginB7v160006Ev, symObjAddr: 0x159C, symBinAddr: 0x100002098, symSize: 0x38 }
  - { offsetInCU: 0x19376, offset: 0x19376, size: 0x8, addend: 0x0, symName: __ZNSt3__113unordered_mapIciNS_4hashIcEENS_8equal_toIcEENS_9allocatorINS_4pairIKciEEEEE3endB7v160006Ev, symObjAddr: 0x15D4, symBinAddr: 0x1000020D0, symSize: 0x38 }
  - { offsetInCU: 0x1939C, offset: 0x1939C, size: 0x8, addend: 0x0, symName: __ZNKSt3__119__hash_map_iteratorINS_15__hash_iteratorIPNS_11__hash_nodeINS_17__hash_value_typeIciEEPvEEEEEdeB7v160006Ev, symObjAddr: 0x163C, symBinAddr: 0x100002138, symSize: 0x28 }
  - { offsetInCU: 0x193C2, offset: 0x193C2, size: 0x8, addend: 0x0, symName: __ZNSt3__114priority_queueIP4NodeNS_6vectorIS2_NS_9allocatorIS2_EEEE4compE4pushERKS2_, symObjAddr: 0x1664, symBinAddr: 0x100002160, symSize: 0x58 }
  - { offsetInCU: 0x193F9, offset: 0x193F9, size: 0x8, addend: 0x0, symName: __ZNSt3__119__hash_map_iteratorINS_15__hash_iteratorIPNS_11__hash_nodeINS_17__hash_value_typeIciEEPvEEEEEppB7v160006Ev, symObjAddr: 0x16BC, symBinAddr: 0x1000021B8, symSize: 0x2C }
  - { offsetInCU: 0x1941F, offset: 0x1941F, size: 0x8, addend: 0x0, symName: __ZNKSt3__114priority_queueIP4NodeNS_6vectorIS2_NS_9allocatorIS2_EEEE4compE4sizeB7v160006Ev, symObjAddr: 0x16E8, symBinAddr: 0x1000021E4, symSize: 0x24 }
  - { offsetInCU: 0x19445, offset: 0x19445, size: 0x8, addend: 0x0, symName: __ZNKSt3__114priority_queueIP4NodeNS_6vectorIS2_NS_9allocatorIS2_EEEE4compE3topB7v160006Ev, symObjAddr: 0x170C, symBinAddr: 0x100002208, symSize: 0x24 }
  - { offsetInCU: 0x1946B, offset: 0x1946B, size: 0x8, addend: 0x0, symName: __ZNSt3__114priority_queueIP4NodeNS_6vectorIS2_NS_9allocatorIS2_EEEE4compE3popEv, symObjAddr: 0x1730, symBinAddr: 0x10000222C, symSize: 0x50 }
  - { offsetInCU: 0x19493, offset: 0x19493, size: 0x8, addend: 0x0, symName: __ZNSt3__113unordered_mapIcNS_12basic_stringIcNS_11char_traitsIcEENS_9allocatorIcEEEENS_4hashIcEENS_8equal_toIcEENS4_INS_4pairIKcS6_EEEEEC1B7v160006Ev, symObjAddr: 0x1780, symBinAddr: 0x10000227C, symSize: 0x2C }
  - { offsetInCU: 0x194D8, offset: 0x194D8, size: 0x8, addend: 0x0, symName: __ZNSt3__114basic_ofstreamIcNS_11char_traitsIcEEEC1ERKNS_12basic_stringIcS2_NS_9allocatorIcEEEEj, symObjAddr: 0x17AC, symBinAddr: 0x1000022A8, symSize: 0x17C }
  - { offsetInCU: 0x19522, offset: 0x19522, size: 0x8, addend: 0x0, symName: __ZNSt3__113unordered_mapIcNS_12basic_stringIcNS_11char_traitsIcEENS_9allocatorIcEEEENS_4hashIcEENS_8equal_toIcEENS4_INS_4pairIKcS6_EEEEE5beginB7v160006Ev, symObjAddr: 0x1928, symBinAddr: 0x100002424, symSize: 0x38 }
  - { offsetInCU: 0x19548, offset: 0x19548, size: 0x8, addend: 0x0, symName: __ZNSt3__113unordered_mapIcNS_12basic_stringIcNS_11char_traitsIcEENS_9allocatorIcEEEENS_4hashIcEENS_8equal_toIcEENS4_INS_4pairIKcS6_EEEEE3endB7v160006Ev, symObjAddr: 0x1960, symBinAddr: 0x10000245C, symSize: 0x38 }
  - { offsetInCU: 0x1956E, offset: 0x1956E, size: 0x8, addend: 0x0, symName: __ZNKSt3__119__hash_map_iteratorINS_15__hash_iteratorIPNS_11__hash_nodeINS_17__hash_value_typeIcNS_12basic_stringIcNS_11char_traitsIcEENS_9allocatorIcEEEEEEPvEEEEEdeB7v160006Ev, symObjAddr: 0x19C8, symBinAddr: 0x1000024C4, symSize: 0x28 }
  - { offsetInCU: 0x19594, offset: 0x19594, size: 0x8, addend: 0x0, symName: __ZNKSt3__112basic_stringIcNS_11char_traitsIcEENS_9allocatorIcEEE4sizeB7v160006Ev, symObjAddr: 0x19F0, symBinAddr: 0x1000024EC, symSize: 0x54 }
  - { offsetInCU: 0x195BA, offset: 0x195BA, size: 0x8, addend: 0x0, symName: __ZNSt3__112basic_stringIcNS_11char_traitsIcEENS_9allocatorIcEEEC1B7v160006Emc, symObjAddr: 0x1A44, symBinAddr: 0x100002540, symSize: 0x3C }
  - { offsetInCU: 0x19602, offset: 0x19602, size: 0x8, addend: 0x0, symName: __ZNKSt3__112basic_stringIcNS_11char_traitsIcEENS_9allocatorIcEEE6substrB7v160006Emm, symObjAddr: 0x1A80, symBinAddr: 0x10000257C, symSize: 0x68 }
  - { offsetInCU: 0x19661, offset: 0x19661, size: 0x8, addend: 0x0, symName: __ZNSt3__16bitsetILm8EEC1B7v160006IcNS_11char_traitsIcEENS_9allocatorIcEEEERKNS_12basic_stringIT_T0_T1_EENSB_9size_typeESE_S8_S8_, symObjAddr: 0x1AE8, symBinAddr: 0x1000025E4, symSize: 0x54 }
  - { offsetInCU: 0x196F3, offset: 0x196F3, size: 0x8, addend: 0x0, symName: __ZNKSt3__16bitsetILm8EE8to_ulongB7v160006Ev, symObjAddr: 0x1B3C, symBinAddr: 0x100002638, symSize: 0x24 }
  - { offsetInCU: 0x1971B, offset: 0x1971B, size: 0x8, addend: 0x0, symName: __ZNSt3__119__hash_map_iteratorINS_15__hash_iteratorIPNS_11__hash_nodeINS_17__hash_value_typeIcNS_12basic_stringIcNS_11char_traitsIcEENS_9allocatorIcEEEEEEPvEEEEEppB7v160006Ev, symObjAddr: 0x1BE0, symBinAddr: 0x1000026DC, symSize: 0x2C }
  - { offsetInCU: 0x19741, offset: 0x19741, size: 0x8, addend: 0x0, symName: __ZNSt3__114basic_ofstreamIcNS_11char_traitsIcEEE5closeEv, symObjAddr: 0x1C0C, symBinAddr: 0x100002708, symSize: 0x58 }
  - { offsetInCU: 0x1976E, offset: 0x1976E, size: 0x8, addend: 0x0, symName: __ZNSt3__114basic_ofstreamIcNS_11char_traitsIcEEED1Ev, symObjAddr: 0x1C64, symBinAddr: 0x100002760, symSize: 0x70 }
  - { offsetInCU: 0x1979B, offset: 0x1979B, size: 0x8, addend: 0x0, symName: __ZNSt3__113unordered_mapIcNS_12basic_stringIcNS_11char_traitsIcEENS_9allocatorIcEEEENS_4hashIcEENS_8equal_toIcEENS4_INS_4pairIKcS6_EEEEED1B7v160006Ev, symObjAddr: 0x1CD4, symBinAddr: 0x1000027D0, symSize: 0x2C }
  - { offsetInCU: 0x197C5, offset: 0x197C5, size: 0x8, addend: 0x0, symName: __ZNSt3__114priority_queueIP4NodeNS_6vectorIS2_NS_9allocatorIS2_EEEE4compED1Ev, symObjAddr: 0x1D00, symBinAddr: 0x1000027FC, symSize: 0x2C }
  - { offsetInCU: 0x197F2, offset: 0x197F2, size: 0x8, addend: 0x0, symName: __ZNSt3__113unordered_mapIciNS_4hashIcEENS_8equal_toIcEENS_9allocatorINS_4pairIKciEEEEED1B7v160006Ev, symObjAddr: 0x1D2C, symBinAddr: 0x100002828, symSize: 0x2C }
  - { offsetInCU: 0x19821, offset: 0x19821, size: 0x8, addend: 0x0, symName: __ZNSt3__114basic_ifstreamIcNS_11char_traitsIcEEED1Ev, symObjAddr: 0x1D58, symBinAddr: 0x100002854, symSize: 0x70 }
  - { offsetInCU: 0x1984D, offset: 0x1984D, size: 0x8, addend: 0x0, symName: __Z10HuffToTextRNSt3__113unordered_mapINS_12basic_stringIcNS_11char_traitsIcEENS_9allocatorIcEEEEcNS_4hashIS6_EENS_8equal_toIS6_EENS4_INS_4pairIKS6_cEEEEEES6_, symObjAddr: 0x1DC8, symBinAddr: 0x1000028C4, symSize: 0x250 }
  - { offsetInCU: 0x198EA, offset: 0x198EA, size: 0x8, addend: 0x0, symName: __ZNSt3__112basic_stringIcNS_11char_traitsIcEENS_9allocatorIcEEEpLB7v160006Ec, symObjAddr: 0x2018, symBinAddr: 0x100002B14, symSize: 0x34 }
  - { offsetInCU: 0x1991F, offset: 0x1991F, size: 0x8, addend: 0x0, symName: __ZNKSt3__113unordered_mapINS_12basic_stringIcNS_11char_traitsIcEENS_9allocatorIcEEEEcNS_4hashIS6_EENS_8equal_toIS6_EENS4_INS_4pairIKS6_cEEEEE5countB7v160006ERSC_, symObjAddr: 0x204C, symBinAddr: 0x100002B48, symSize: 0x2C }
  - { offsetInCU: 0x19954, offset: 0x19954, size: 0x8, addend: 0x0, symName: __ZNSt3__113unordered_mapINS_12basic_stringIcNS_11char_traitsIcEENS_9allocatorIcEEEEcNS_4hashIS6_EENS_8equal_toIS6_EENS4_INS_4pairIKS6_cEEEEEixERSC_, symObjAddr: 0x2078, symBinAddr: 0x100002B74, symSize: 0x128 }
  - { offsetInCU: 0x199B9, offset: 0x199B9, size: 0x8, addend: 0x0, symName: __ZNSt3__112basic_stringIcNS_11char_traitsIcEENS_9allocatorIcEEEaSB7v160006EPKc, symObjAddr: 0x21A0, symBinAddr: 0x100002C9C, symSize: 0x2C }
  - { offsetInCU: 0x199EE, offset: 0x199EE, size: 0x8, addend: 0x0, symName: __ZNKSt3__112basic_stringIcNS_11char_traitsIcEENS_9allocatorIcEEE5emptyB7v160006Ev, symObjAddr: 0x21CC, symBinAddr: 0x100002CC8, symSize: 0x30 }
  - { offsetInCU: 0x19A13, offset: 0x19A13, size: 0x8, addend: 0x0, symName: __Z13loadAndDecodeRNSt3__112basic_stringIcNS_11char_traitsIcEENS_9allocatorIcEEEE, symObjAddr: 0x21FC, symBinAddr: 0x100002CF8, symSize: 0x650 }
  - { offsetInCU: 0x19BA9, offset: 0x19BA9, size: 0x8, addend: 0x0, symName: __ZNSt3__113unordered_mapINS_12basic_stringIcNS_11char_traitsIcEENS_9allocatorIcEEEEcNS_4hashIS6_EENS_8equal_toIS6_EENS4_INS_4pairIKS6_cEEEEEC1B7v160006Ev, symObjAddr: 0x284C, symBinAddr: 0x100003348, symSize: 0x2C }
  - { offsetInCU: 0x19BD3, offset: 0x19BD3, size: 0x8, addend: 0x0, symName: __ZNSt3__16bitsetILm8EEC1B7v160006Ey, symObjAddr: 0x2878, symBinAddr: 0x100003374, symSize: 0x34 }
  - { offsetInCU: 0x19C0C, offset: 0x19C0C, size: 0x8, addend: 0x0, symName: __ZNKSt3__16bitsetILm8EE9to_stringB7v160006Ecc, symObjAddr: 0x28AC, symBinAddr: 0x1000033A8, symSize: 0x3C }
  - { offsetInCU: 0x19C52, offset: 0x19C52, size: 0x8, addend: 0x0, symName: __ZNSt3__114basic_ifstreamIcNS_11char_traitsIcEEE5closeEv, symObjAddr: 0x2914, symBinAddr: 0x100003410, symSize: 0x58 }
  - { offsetInCU: 0x19C7A, offset: 0x19C7A, size: 0x8, addend: 0x0, symName: __ZNSt3__113unordered_mapINS_12basic_stringIcNS_11char_traitsIcEENS_9allocatorIcEEEEcNS_4hashIS6_EENS_8equal_toIS6_EENS4_INS_4pairIKS6_cEEEEED1B7v160006Ev, symObjAddr: 0x296C, symBinAddr: 0x100003468, symSize: 0x2C }
  - { offsetInCU: 0x19CA4, offset: 0x19CA4, size: 0x8, addend: 0x0, symName: _main, symObjAddr: 0x2998, symBinAddr: 0x100003494, symSize: 0x15C }
  - { offsetInCU: 0x19CF7, offset: 0x19CF7, size: 0x8, addend: 0x0, symName: __ZNSt3__114basic_ofstreamIcNS_11char_traitsIcEEED2Ev, symObjAddr: 0x2AF4, symBinAddr: 0x1000035F0, symSize: 0x9C }
  - { offsetInCU: 0x19D31, offset: 0x19D31, size: 0x8, addend: 0x0, symName: __ZTv0_n24_NSt3__114basic_ofstreamIcNS_11char_traitsIcEEED1Ev, symObjAddr: 0x2B90, symBinAddr: 0x10000368C, symSize: 0x28 }
  - { offsetInCU: 0x19D48, offset: 0x19D48, size: 0x8, addend: 0x0, symName: __ZNSt3__114priority_queueIP4NodeNS_6vectorIS2_NS_9allocatorIS2_EEEE4compED2Ev, symObjAddr: 0x2BB8, symBinAddr: 0x1000036B4, symSize: 0x2C }
  - { offsetInCU: 0x19D75, offset: 0x19D75, size: 0x8, addend: 0x0, symName: __ZNSt3__16vectorIP4NodeNS_9allocatorIS2_EEED1B7v160006Ev, symObjAddr: 0x2BE4, symBinAddr: 0x1000036E0, symSize: 0x2C }
  - { offsetInCU: 0x19D9F, offset: 0x19D9F, size: 0x8, addend: 0x0, symName: __ZNSt3__16vectorIP4NodeNS_9allocatorIS2_EEED2B7v160006Ev, symObjAddr: 0x2C10, symBinAddr: 0x10000370C, symSize: 0x3C }
  - { offsetInCU: 0x19DC9, offset: 0x19DC9, size: 0x8, addend: 0x0, symName: __ZNSt3__16vectorIP4NodeNS_9allocatorIS2_EEE16__destroy_vectorC1ERS5_, symObjAddr: 0x2C4C, symBinAddr: 0x100003748, symSize: 0x34 }
  - { offsetInCU: 0x19E02, offset: 0x19E02, size: 0x8, addend: 0x0, symName: __ZNSt3__16vectorIP4NodeNS_9allocatorIS2_EEE16__destroy_vectorclB7v160006Ev, symObjAddr: 0x2C80, symBinAddr: 0x10000377C, symSize: 0x9C }
  - { offsetInCU: 0x19E28, offset: 0x19E28, size: 0x8, addend: 0x0, symName: __ZNSt3__16vectorIP4NodeNS_9allocatorIS2_EEE16__destroy_vectorC2ERS5_, symObjAddr: 0x2D1C, symBinAddr: 0x100003818, symSize: 0x20 }
  - { offsetInCU: 0x19E61, offset: 0x19E61, size: 0x8, addend: 0x0, symName: __ZNKSt3__16vectorIP4NodeNS_9allocatorIS2_EEE17__annotate_deleteB7v160006Ev, symObjAddr: 0x2D3C, symBinAddr: 0x100003838, symSize: 0xB8 }
  - { offsetInCU: 0x19E87, offset: 0x19E87, size: 0x8, addend: 0x0, symName: __ZNSt3__16vectorIP4NodeNS_9allocatorIS2_EEE7__clearB7v160006Ev, symObjAddr: 0x2E04, symBinAddr: 0x100003900, symSize: 0x28 }
  - { offsetInCU: 0x19EAD, offset: 0x19EAD, size: 0x8, addend: 0x0, symName: __ZNSt3__116allocator_traitsINS_9allocatorIP4NodeEEE10deallocateB7v160006ERS4_PS3_m, symObjAddr: 0x2E2C, symBinAddr: 0x100003928, symSize: 0x34 }
  - { offsetInCU: 0x19EEF, offset: 0x19EEF, size: 0x8, addend: 0x0, symName: __ZNSt3__16vectorIP4NodeNS_9allocatorIS2_EEE7__allocB7v160006Ev, symObjAddr: 0x2E60, symBinAddr: 0x10000395C, symSize: 0x28 }
  - { offsetInCU: 0x19F15, offset: 0x19F15, size: 0x8, addend: 0x0, symName: __ZNKSt3__16vectorIP4NodeNS_9allocatorIS2_EEE8capacityB7v160006Ev, symObjAddr: 0x2E88, symBinAddr: 0x100003984, symSize: 0x40 }
  - { offsetInCU: 0x19F3B, offset: 0x19F3B, size: 0x8, addend: 0x0, symName: __ZNKSt3__16vectorIP4NodeNS_9allocatorIS2_EEE31__annotate_contiguous_containerB7v160006EPKvS7_S7_S7_, symObjAddr: 0x2EC8, symBinAddr: 0x1000039C4, symSize: 0x20 }
  - { offsetInCU: 0x19F8D, offset: 0x19F8D, size: 0x8, addend: 0x0, symName: __ZNKSt3__16vectorIP4NodeNS_9allocatorIS2_EEE4dataB7v160006Ev, symObjAddr: 0x2EE8, symBinAddr: 0x1000039E4, symSize: 0x28 }
  - { offsetInCU: 0x19FB3, offset: 0x19FB3, size: 0x8, addend: 0x0, symName: __ZNKSt3__16vectorIP4NodeNS_9allocatorIS2_EEE4sizeB7v160006Ev, symObjAddr: 0x2F10, symBinAddr: 0x100003A0C, symSize: 0x28 }
  - { offsetInCU: 0x19FD9, offset: 0x19FD9, size: 0x8, addend: 0x0, symName: __ZNSt3__16vectorIP4NodeNS_9allocatorIS2_EEE22__base_destruct_at_endB7v160006EPS2_, symObjAddr: 0x2F4C, symBinAddr: 0x100003A48, symSize: 0xA0 }
  - { offsetInCU: 0x1A01D, offset: 0x1A01D, size: 0x8, addend: 0x0, symName: __ZNSt3__116allocator_traitsINS_9allocatorIP4NodeEEE7destroyB7v160006IS3_vEEvRS4_PT_, symObjAddr: 0x2FEC, symBinAddr: 0x100003AE8, symSize: 0x2C }
  - { offsetInCU: 0x1A05A, offset: 0x1A05A, size: 0x8, addend: 0x0, symName: __ZNSt3__19allocatorIP4NodeE7destroyB7v160006EPS2_, symObjAddr: 0x3018, symBinAddr: 0x100003B14, symSize: 0x14 }
  - { offsetInCU: 0x1A08E, offset: 0x1A08E, size: 0x8, addend: 0x0, symName: __ZNSt3__19allocatorIP4NodeE10deallocateB7v160006EPS2_m, symObjAddr: 0x302C, symBinAddr: 0x100003B28, symSize: 0x70 }
  - { offsetInCU: 0x1A0D0, offset: 0x1A0D0, size: 0x8, addend: 0x0, symName: __ZNSt3__117__compressed_pairIPP4NodeNS_9allocatorIS2_EEE6secondB7v160006Ev, symObjAddr: 0x3124, symBinAddr: 0x100003C20, symSize: 0x24 }
  - { offsetInCU: 0x1A0F6, offset: 0x1A0F6, size: 0x8, addend: 0x0, symName: __ZNSt3__122__compressed_pair_elemINS_9allocatorIP4NodeEELi1ELb1EE5__getB7v160006Ev, symObjAddr: 0x3148, symBinAddr: 0x100003C44, symSize: 0x14 }
  - { offsetInCU: 0x1A11C, offset: 0x1A11C, size: 0x8, addend: 0x0, symName: __ZNKSt3__16vectorIP4NodeNS_9allocatorIS2_EEE9__end_capB7v160006Ev, symObjAddr: 0x315C, symBinAddr: 0x100003C58, symSize: 0x28 }
  - { offsetInCU: 0x1A142, offset: 0x1A142, size: 0x8, addend: 0x0, symName: __ZNKSt3__117__compressed_pairIPP4NodeNS_9allocatorIS2_EEE5firstB7v160006Ev, symObjAddr: 0x3184, symBinAddr: 0x100003C80, symSize: 0x24 }
  - { offsetInCU: 0x1A168, offset: 0x1A168, size: 0x8, addend: 0x0, symName: __ZNKSt3__122__compressed_pair_elemIPP4NodeLi0ELb0EE5__getB7v160006Ev, symObjAddr: 0x31A8, symBinAddr: 0x100003CA4, symSize: 0x14 }
  - { offsetInCU: 0x1A18E, offset: 0x1A18E, size: 0x8, addend: 0x0, symName: __ZNSt3__114basic_ifstreamIcNS_11char_traitsIcEEED2Ev, symObjAddr: 0x31BC, symBinAddr: 0x100003CB8, symSize: 0x9C }
  - { offsetInCU: 0x1A1C8, offset: 0x1A1C8, size: 0x8, addend: 0x0, symName: __ZTv0_n24_NSt3__114basic_ifstreamIcNS_11char_traitsIcEEED1Ev, symObjAddr: 0x3258, symBinAddr: 0x100003D54, symSize: 0x28 }
  - { offsetInCU: 0x1A1DF, offset: 0x1A1DF, size: 0x8, addend: 0x0, symName: __ZNSt3__113unordered_mapIcNS_12basic_stringIcNS_11char_traitsIcEENS_9allocatorIcEEEENS_4hashIcEENS_8equal_toIcEENS4_INS_4pairIKcS6_EEEEE4findB7v160006ERSC_, symObjAddr: 0x3280, symBinAddr: 0x100003D7C, symSize: 0x40 }
  - { offsetInCU: 0x1A214, offset: 0x1A214, size: 0x8, addend: 0x0, symName: __ZNKSt3__119__hash_map_iteratorINS_15__hash_iteratorIPNS_11__hash_nodeINS_17__hash_value_typeIcNS_12basic_stringIcNS_11char_traitsIcEENS_9allocatorIcEEEEEEPvEEEEEptB7v160006Ev, symObjAddr: 0x32C0, symBinAddr: 0x100003DBC, symSize: 0x2C }
  - { offsetInCU: 0x1A23A, offset: 0x1A23A, size: 0x8, addend: 0x0, symName: __ZNSt3__113unordered_mapIcNS_12basic_stringIcNS_11char_traitsIcEENS_9allocatorIcEEEENS_4hashIcEENS_8equal_toIcEENS4_INS_4pairIKcS6_EEEEE25__construct_node_with_keyERSC_, symObjAddr: 0x32EC, symBinAddr: 0x100003DE8, symSize: 0x144 }
  - { offsetInCU: 0x1A290, offset: 0x1A290, size: 0x8, addend: 0x0, symName: __ZNSt3__112__hash_tableINS_17__hash_value_typeIcNS_12basic_stringIcNS_11char_traitsIcEENS_9allocatorIcEEEEEENS_22__unordered_map_hasherIcS8_NS_4hashIcEENS_8equal_toIcEELb1EEENS_21__unordered_map_equalIcS8_SD_SB_Lb1EEENS5_IS8_EEE20__node_insert_uniqueEPNS_11__hash_nodeIS8_PvEE, symObjAddr: 0x3430, symBinAddr: 0x100003F2C, symSize: 0xC8 }
  - { offsetInCU: 0x1A2E5, offset: 0x1A2E5, size: 0x8, addend: 0x0, symName: __ZNKSt3__110unique_ptrINS_11__hash_nodeINS_17__hash_value_typeIcNS_12basic_stringIcNS_11char_traitsIcEENS_9allocatorIcEEEEEEPvEENS_26__hash_map_node_destructorINS6_ISB_EEEEE3getB7v160006Ev, symObjAddr: 0x34F8, symBinAddr: 0x100003FF4, symSize: 0x28 }
  - { offsetInCU: 0x1A30B, offset: 0x1A30B, size: 0x8, addend: 0x0, symName: __ZNSt3__14pairINS_19__hash_map_iteratorINS_15__hash_iteratorIPNS_11__hash_nodeINS_17__hash_value_typeIcNS_12basic_stringIcNS_11char_traitsIcEENS_9allocatorIcEEEEEEPvEEEEEEbEC1B7v160006ISF_bEERKNS0_IT_T0_EE, symObjAddr: 0x3520, symBinAddr: 0x10000401C, symSize: 0x34 }
  - { offsetInCU: 0x1A355, offset: 0x1A355, size: 0x8, addend: 0x0, symName: __ZNSt3__110unique_ptrINS_11__hash_nodeINS_17__hash_value_typeIcNS_12basic_stringIcNS_11char_traitsIcEENS_9allocatorIcEEEEEEPvEENS_26__hash_map_node_destructorINS6_ISB_EEEEE7releaseB7v160006Ev, symObjAddr: 0x3554, symBinAddr: 0x100004050, symSize: 0x44 }
  - { offsetInCU: 0x1A38A, offset: 0x1A38A, size: 0x8, addend: 0x0, symName: __ZNSt3__110unique_ptrINS_11__hash_nodeINS_17__hash_value_typeIcNS_12basic_stringIcNS_11char_traitsIcEENS_9allocatorIcEEEEEEPvEENS_26__hash_map_node_destructorINS6_ISB_EEEEED1B7v160006Ev, symObjAddr: 0x3598, symBinAddr: 0x100004094, symSize: 0x2C }
  - { offsetInCU: 0x1A3B4, offset: 0x1A3B4, size: 0x8, addend: 0x0, symName: __ZNSt3__112__hash_tableINS_17__hash_value_typeIcNS_12basic_stringIcNS_11char_traitsIcEENS_9allocatorIcEEEEEENS_22__unordered_map_hasherIcS8_NS_4hashIcEENS_8equal_toIcEELb1EEENS_21__unordered_map_equalIcS8_SD_SB_Lb1EEENS5_IS8_EEE4findIcEENS_15__hash_iteratorIPNS_11__hash_nodeIS8_PvEEEERKT_, symObjAddr: 0x35C4, symBinAddr: 0x1000040C0, symSize: 0x1B4 }
  - { offsetInCU: 0x1A43E, offset: 0x1A43E, size: 0x8, addend: 0x0, symName: __ZNSt3__119__hash_map_iteratorINS_15__hash_iteratorIPNS_11__hash_nodeINS_17__hash_value_typeIcNS_12basic_stringIcNS_11char_traitsIcEENS_9allocatorIcEEEEEEPvEEEEEC1B7v160006ESE_, symObjAddr: 0x3778, symBinAddr: 0x100004274, symSize: 0x34 }
  - { offsetInCU: 0x1A477, offset: 0x1A477, size: 0x8, addend: 0x0, symName: __ZNSt3__112__hash_tableINS_17__hash_value_typeIcNS_12basic_stringIcNS_11char_traitsIcEENS_9allocatorIcEEEEEENS_22__unordered_map_hasherIcS8_NS_4hashIcEENS_8equal_toIcEELb1EEENS_21__unordered_map_equalIcS8_SD_SB_Lb1EEENS5_IS8_EEE13hash_functionB7v160006Ev, symObjAddr: 0x37AC, symBinAddr: 0x1000042A8, symSize: 0x28 }
  - { offsetInCU: 0x1A49D, offset: 0x1A49D, size: 0x8, addend: 0x0, symName: __ZNKSt3__122__unordered_map_hasherIcNS_17__hash_value_typeIcNS_12basic_stringIcNS_11char_traitsIcEENS_9allocatorIcEEEEEENS_4hashIcEENS_8equal_toIcEELb1EEclB7v160006ERKc, symObjAddr: 0x37D4, symBinAddr: 0x1000042D0, symSize: 0x30 }
  - { offsetInCU: 0x1A4D2, offset: 0x1A4D2, size: 0x8, addend: 0x0, symName: __ZNKSt3__112__hash_tableINS_17__hash_value_typeIcNS_12basic_stringIcNS_11char_traitsIcEENS_9allocatorIcEEEEEENS_22__unordered_map_hasherIcS8_NS_4hashIcEENS_8equal_toIcEELb1EEENS_21__unordered_map_equalIcS8_SD_SB_Lb1EEENS5_IS8_EEE12bucket_countB7v160006Ev, symObjAddr: 0x3804, symBinAddr: 0x100004300, symSize: 0x28 }
  - { offsetInCU: 0x1A4F8, offset: 0x1A4F8, size: 0x8, addend: 0x0, symName: __ZNKSt3__110unique_ptrIA_PNS_16__hash_node_baseIPNS_11__hash_nodeINS_17__hash_value_typeIcNS_12basic_stringIcNS_11char_traitsIcEENS_9allocatorIcEEEEEEPvEEEENS_25__bucket_list_deallocatorINS7_ISF_EEEEEixB7v160006Em, symObjAddr: 0x38C4, symBinAddr: 0x1000043C0, symSize: 0x34 }
  - { offsetInCU: 0x1A52D, offset: 0x1A52D, size: 0x8, addend: 0x0, symName: __ZNKSt3__116__hash_node_baseIPNS_11__hash_nodeINS_17__hash_value_typeIcNS_12basic_stringIcNS_11char_traitsIcEENS_9allocatorIcEEEEEEPvEEE6__hashB7v160006Ev, symObjAddr: 0x38F8, symBinAddr: 0x1000043F4, symSize: 0x18 }
  - { offsetInCU: 0x1A553, offset: 0x1A553, size: 0x8, addend: 0x0, symName: __ZNSt3__112__hash_tableINS_17__hash_value_typeIcNS_12basic_stringIcNS_11char_traitsIcEENS_9allocatorIcEEEEEENS_22__unordered_map_hasherIcS8_NS_4hashIcEENS_8equal_toIcEELb1EEENS_21__unordered_map_equalIcS8_SD_SB_Lb1EEENS5_IS8_EEE6key_eqB7v160006Ev, symObjAddr: 0x3910, symBinAddr: 0x10000440C, symSize: 0x28 }
  - { offsetInCU: 0x1A579, offset: 0x1A579, size: 0x8, addend: 0x0, symName: __ZNKSt3__121__unordered_map_equalIcNS_17__hash_value_typeIcNS_12basic_stringIcNS_11char_traitsIcEENS_9allocatorIcEEEEEENS_8equal_toIcEENS_4hashIcEELb1EEclB7v160006ERKS8_RKc, symObjAddr: 0x3938, symBinAddr: 0x100004434, symSize: 0x48 }
  - { offsetInCU: 0x1A5BD, offset: 0x1A5BD, size: 0x8, addend: 0x0, symName: __ZNSt3__116__hash_node_baseIPNS_11__hash_nodeINS_17__hash_value_typeIcNS_12basic_stringIcNS_11char_traitsIcEENS_9allocatorIcEEEEEEPvEEE8__upcastB7v160006Ev, symObjAddr: 0x3980, symBinAddr: 0x10000447C, symSize: 0x24 }
  - { offsetInCU: 0x1A5E3, offset: 0x1A5E3, size: 0x8, addend: 0x0, symName: __ZNSt3__115__hash_iteratorIPNS_11__hash_nodeINS_17__hash_value_typeIcNS_12basic_stringIcNS_11char_traitsIcEENS_9allocatorIcEEEEEEPvEEEC1B7v160006EPNS_16__hash_node_baseISC_EEPKv, symObjAddr: 0x39A4, symBinAddr: 0x1000044A0, symSize: 0x3C }
  - { offsetInCU: 0x1A62B, offset: 0x1A62B, size: 0x8, addend: 0x0, symName: __ZNSt3__112__hash_tableINS_17__hash_value_typeIcNS_12basic_stringIcNS_11char_traitsIcEENS_9allocatorIcEEEEEENS_22__unordered_map_hasherIcS8_NS_4hashIcEENS_8equal_toIcEELb1EEENS_21__unordered_map_equalIcS8_SD_SB_Lb1EEENS5_IS8_EEE3endEv, symObjAddr: 0x39E0, symBinAddr: 0x1000044DC, symSize: 0x30 }
  - { offsetInCU: 0x1A653, offset: 0x1A653, size: 0x8, addend: 0x0, symName: __ZNSt3__117__compressed_pairImNS_22__unordered_map_hasherIcNS_17__hash_value_typeIcNS_12basic_stringIcNS_11char_traitsIcEENS_9allocatorIcEEEEEENS_4hashIcEENS_8equal_toIcEELb1EEEE6secondB7v160006Ev, symObjAddr: 0x3A10, symBinAddr: 0x10000450C, symSize: 0x24 }
  - { offsetInCU: 0x1A679, offset: 0x1A679, size: 0x8, addend: 0x0, symName: __ZNSt3__122__compressed_pair_elemINS_22__unordered_map_hasherIcNS_17__hash_value_typeIcNS_12basic_stringIcNS_11char_traitsIcEENS_9allocatorIcEEEEEENS_4hashIcEENS_8equal_toIcEELb1EEELi1ELb1EE5__getB7v160006Ev, symObjAddr: 0x3A34, symBinAddr: 0x100004530, symSize: 0x14 }
  - { offsetInCU: 0x1A69F, offset: 0x1A69F, size: 0x8, addend: 0x0, symName: __ZNKSt3__14hashIcEclB7v160006Ec, symObjAddr: 0x3A48, symBinAddr: 0x100004544, symSize: 0x18 }
  - { offsetInCU: 0x1A6D4, offset: 0x1A6D4, size: 0x8, addend: 0x0, symName: __ZNKSt3__110unique_ptrIA_PNS_16__hash_node_baseIPNS_11__hash_nodeINS_17__hash_value_typeIcNS_12basic_stringIcNS_11char_traitsIcEENS_9allocatorIcEEEEEEPvEEEENS_25__bucket_list_deallocatorINS7_ISF_EEEEE11get_deleterB7v160006Ev, symObjAddr: 0x3A60, symBinAddr: 0x10000455C, symSize: 0x24 }
  - { offsetInCU: 0x1A6FA, offset: 0x1A6FA, size: 0x8, addend: 0x0, symName: __ZNKSt3__125__bucket_list_deallocatorINS_9allocatorIPNS_16__hash_node_baseIPNS_11__hash_nodeINS_17__hash_value_typeIcNS_12basic_stringIcNS_11char_traitsIcEENS1_IcEEEEEEPvEEEEEEE4sizeB7v160006Ev, symObjAddr: 0x3A84, symBinAddr: 0x100004580, symSize: 0x28 }
  - { offsetInCU: 0x1A720, offset: 0x1A720, size: 0x8, addend: 0x0, symName: __ZNKSt3__117__compressed_pairIPPNS_16__hash_node_baseIPNS_11__hash_nodeINS_17__hash_value_typeIcNS_12basic_stringIcNS_11char_traitsIcEENS_9allocatorIcEEEEEEPvEEEENS_25__bucket_list_deallocatorINS7_ISF_EEEEE6secondB7v160006Ev, symObjAddr: 0x3AAC, symBinAddr: 0x1000045A8, symSize: 0x28 }
  - { offsetInCU: 0x1A746, offset: 0x1A746, size: 0x8, addend: 0x0, symName: __ZNKSt3__122__compressed_pair_elemINS_25__bucket_list_deallocatorINS_9allocatorIPNS_16__hash_node_baseIPNS_11__hash_nodeINS_17__hash_value_typeIcNS_12basic_stringIcNS_11char_traitsIcEENS2_IcEEEEEEPvEEEEEEEELi1ELb0EE5__getB7v160006Ev, symObjAddr: 0x3AD4, symBinAddr: 0x1000045D0, symSize: 0x14 }
  - { offsetInCU: 0x1A76C, offset: 0x1A76C, size: 0x8, addend: 0x0, symName: __ZNKSt3__117__compressed_pairImNS_9allocatorIPNS_16__hash_node_baseIPNS_11__hash_nodeINS_17__hash_value_typeIcNS_12basic_stringIcNS_11char_traitsIcEENS1_IcEEEEEEPvEEEEEEE5firstB7v160006Ev, symObjAddr: 0x3AE8, symBinAddr: 0x1000045E4, symSize: 0x24 }
  - { offsetInCU: 0x1A792, offset: 0x1A792, size: 0x8, addend: 0x0, symName: __ZNKSt3__122__compressed_pair_elemImLi0ELb0EE5__getB7v160006Ev, symObjAddr: 0x3B0C, symBinAddr: 0x100004608, symSize: 0x14 }
  - { offsetInCU: 0x1A7B8, offset: 0x1A7B8, size: 0x8, addend: 0x0, symName: __ZNKSt3__117__compressed_pairIPPNS_16__hash_node_baseIPNS_11__hash_nodeINS_17__hash_value_typeIcNS_12basic_stringIcNS_11char_traitsIcEENS_9allocatorIcEEEEEEPvEEEENS_25__bucket_list_deallocatorINS7_ISF_EEEEE5firstB7v160006Ev, symObjAddr: 0x3B20, symBinAddr: 0x10000461C, symSize: 0x24 }
  - { offsetInCU: 0x1A7DE, offset: 0x1A7DE, size: 0x8, addend: 0x0, symName: __ZNKSt3__122__compressed_pair_elemIPPNS_16__hash_node_baseIPNS_11__hash_nodeINS_17__hash_value_typeIcNS_12basic_stringIcNS_11char_traitsIcEENS_9allocatorIcEEEEEEPvEEEELi0ELb0EE5__getB7v160006Ev, symObjAddr: 0x3B44, symBinAddr: 0x100004640, symSize: 0x14 }
  - { offsetInCU: 0x1A804, offset: 0x1A804, size: 0x8, addend: 0x0, symName: __ZNSt3__117__compressed_pairIfNS_21__unordered_map_equalIcNS_17__hash_value_typeIcNS_12basic_stringIcNS_11char_traitsIcEENS_9allocatorIcEEEEEENS_8equal_toIcEENS_4hashIcEELb1EEEE6secondB7v160006Ev, symObjAddr: 0x3B58, symBinAddr: 0x100004654, symSize: 0x24 }
  - { offsetInCU: 0x1A82A, offset: 0x1A82A, size: 0x8, addend: 0x0, symName: __ZNSt3__122__compressed_pair_elemINS_21__unordered_map_equalIcNS_17__hash_value_typeIcNS_12basic_stringIcNS_11char_traitsIcEENS_9allocatorIcEEEEEENS_8equal_toIcEENS_4hashIcEELb1EEELi1ELb1EE5__getB7v160006Ev, symObjAddr: 0x3B7C, symBinAddr: 0x100004678, symSize: 0x14 }
  - { offsetInCU: 0x1A850, offset: 0x1A850, size: 0x8, addend: 0x0, symName: __ZNKSt3__18equal_toIcEclB7v160006ERKcS3_, symObjAddr: 0x3B90, symBinAddr: 0x10000468C, symSize: 0x34 }
  - { offsetInCU: 0x1A894, offset: 0x1A894, size: 0x8, addend: 0x0, symName: __ZNKSt3__117__hash_value_typeIcNS_12basic_stringIcNS_11char_traitsIcEENS_9allocatorIcEEEEE11__get_valueB7v160006Ev, symObjAddr: 0x3BC4, symBinAddr: 0x1000046C0, symSize: 0x14 }
  - { offsetInCU: 0x1A8BA, offset: 0x1A8BA, size: 0x8, addend: 0x0, symName: __ZNSt3__114pointer_traitsIPNS_16__hash_node_baseIPNS_11__hash_nodeINS_17__hash_value_typeIcNS_12basic_stringIcNS_11char_traitsIcEENS_9allocatorIcEEEEEEPvEEEEE10pointer_toB7v160006ERSE_, symObjAddr: 0x3BD8, symBinAddr: 0x1000046D4, symSize: 0x14 }
  - { offsetInCU: 0x1A8DD, offset: 0x1A8DD, size: 0x8, addend: 0x0, symName: __ZNSt3__115__hash_iteratorIPNS_11__hash_nodeINS_17__hash_value_typeIcNS_12basic_stringIcNS_11char_traitsIcEENS_9allocatorIcEEEEEEPvEEEC2B7v160006EPNS_16__hash_node_baseISC_EEPKv, symObjAddr: 0x3BEC, symBinAddr: 0x1000046E8, symSize: 0x24 }
  - { offsetInCU: 0x1A925, offset: 0x1A925, size: 0x8, addend: 0x0, symName: __ZNSt3__119__hash_map_iteratorINS_15__hash_iteratorIPNS_11__hash_nodeINS_17__hash_value_typeIcNS_12basic_stringIcNS_11char_traitsIcEENS_9allocatorIcEEEEEEPvEEEEEC2B7v160006ESE_, symObjAddr: 0x3C10, symBinAddr: 0x10000470C, symSize: 0x20 }
  - { offsetInCU: 0x1A95E, offset: 0x1A95E, size: 0x8, addend: 0x0, symName: __ZNSt3__114pointer_traitsIPNS_4pairIKcNS_12basic_stringIcNS_11char_traitsIcEENS_9allocatorIcEEEEEEE10pointer_toB7v160006ERS9_, symObjAddr: 0x3C30, symBinAddr: 0x10000472C, symSize: 0x14 }
  - { offsetInCU: 0x1A981, offset: 0x1A981, size: 0x8, addend: 0x0, symName: __ZNKSt3__115__hash_iteratorIPNS_11__hash_nodeINS_17__hash_value_typeIcNS_12basic_stringIcNS_11char_traitsIcEENS_9allocatorIcEEEEEEPvEEEptB7v160006Ev, symObjAddr: 0x3C44, symBinAddr: 0x100004740, symSize: 0x30 }
  - { offsetInCU: 0x1A9A7, offset: 0x1A9A7, size: 0x8, addend: 0x0, symName: __ZNSt3__117__hash_value_typeIcNS_12basic_stringIcNS_11char_traitsIcEENS_9allocatorIcEEEEE11__get_valueB7v160006Ev, symObjAddr: 0x3C74, symBinAddr: 0x100004770, symSize: 0x14 }
  - { offsetInCU: 0x1A9CD, offset: 0x1A9CD, size: 0x8, addend: 0x0, symName: __ZNSt3__114pointer_traitsIPNS_17__hash_value_typeIcNS_12basic_stringIcNS_11char_traitsIcEENS_9allocatorIcEEEEEEE10pointer_toB7v160006ERS8_, symObjAddr: 0x3C88, symBinAddr: 0x100004784, symSize: 0x14 }
  - { offsetInCU: 0x1A9F0, offset: 0x1A9F0, size: 0x8, addend: 0x0, symName: __ZNSt3__112__hash_tableINS_17__hash_value_typeIcNS_12basic_stringIcNS_11char_traitsIcEENS_9allocatorIcEEEEEENS_22__unordered_map_hasherIcS8_NS_4hashIcEENS_8equal_toIcEELb1EEENS_21__unordered_map_equalIcS8_SD_SB_Lb1EEENS5_IS8_EEE12__node_allocB7v160006Ev, symObjAddr: 0x3C9C, symBinAddr: 0x100004798, symSize: 0x28 }
  - { offsetInCU: 0x1AA16, offset: 0x1AA16, size: 0x8, addend: 0x0, symName: __ZNSt3__116allocator_traitsINS_9allocatorINS_11__hash_nodeINS_17__hash_value_typeIcNS_12basic_stringIcNS_11char_traitsIcEENS1_IcEEEEEEPvEEEEE8allocateB7v160006ERSC_m, symObjAddr: 0x3CC4, symBinAddr: 0x1000047C0, symSize: 0x2C }
  - { offsetInCU: 0x1AA49, offset: 0x1AA49, size: 0x8, addend: 0x0, symName: __ZNSt3__126__hash_map_node_destructorINS_9allocatorINS_11__hash_nodeINS_17__hash_value_typeIcNS_12basic_stringIcNS_11char_traitsIcEENS1_IcEEEEEEPvEEEEEC1B7v160006ERSC_, symObjAddr: 0x3CF0, symBinAddr: 0x1000047EC, symSize: 0x34 }
  - { offsetInCU: 0x1AA88, offset: 0x1AA88, size: 0x8, addend: 0x0, symName: __ZNSt3__110unique_ptrINS_11__hash_nodeINS_17__hash_value_typeIcNS_12basic_stringIcNS_11char_traitsIcEENS_9allocatorIcEEEEEEPvEENS_26__hash_map_node_destructorINS6_ISB_EEEEEC1B7v160006ILb1EvEEPSB_NS_16__dependent_typeINS_27__unique_ptr_deleter_sfinaeISE_EEXT_EE20__good_rval_ref_typeE, symObjAddr: 0x3D24, symBinAddr: 0x100004820, symSize: 0x3C }
  - { offsetInCU: 0x1AAD9, offset: 0x1AAD9, size: 0x8, addend: 0x0, symName: __ZNSt3__116allocator_traitsINS_9allocatorINS_11__hash_nodeINS_17__hash_value_typeIcNS_12basic_stringIcNS_11char_traitsIcEENS1_IcEEEEEEPvEEEEE9constructB7v160006IKcJRSF_EvEEvRSC_PT_DpOT0_, symObjAddr: 0x3D60, symBinAddr: 0x10000485C, symSize: 0x34 }
  - { offsetInCU: 0x1AB30, offset: 0x1AB30, size: 0x8, addend: 0x0, symName: __ZNKSt3__110unique_ptrINS_11__hash_nodeINS_17__hash_value_typeIcNS_12basic_stringIcNS_11char_traitsIcEENS_9allocatorIcEEEEEEPvEENS_26__hash_map_node_destructorINS6_ISB_EEEEEptB7v160006Ev, symObjAddr: 0x3D94, symBinAddr: 0x100004890, symSize: 0x28 }
  - { offsetInCU: 0x1AB56, offset: 0x1AB56, size: 0x8, addend: 0x0, symName: __ZNSt3__110unique_ptrINS_11__hash_nodeINS_17__hash_value_typeIcNS_12basic_stringIcNS_11char_traitsIcEENS_9allocatorIcEEEEEEPvEENS_26__hash_map_node_destructorINS6_ISB_EEEEE11get_deleterB7v160006Ev, symObjAddr: 0x3DBC, symBinAddr: 0x1000048B8, symSize: 0x24 }
  - { offsetInCU: 0x1AB81, offset: 0x1AB81, size: 0x8, addend: 0x0, symName: __ZNSt3__116allocator_traitsINS_9allocatorINS_11__hash_nodeINS_17__hash_value_typeIcNS_12basic_stringIcNS_11char_traitsIcEENS1_IcEEEEEEPvEEEEE9constructB7v160006IS8_JEvEEvRSC_PT_DpOT0_, symObjAddr: 0x3DE0, symBinAddr: 0x1000048DC, symSize: 0x2C }
  - { offsetInCU: 0x1ABC3, offset: 0x1ABC3, size: 0x8, addend: 0x0, symName: __ZNSt3__117__compressed_pairINS_16__hash_node_baseIPNS_11__hash_nodeINS_17__hash_value_typeIcNS_12basic_stringIcNS_11char_traitsIcEENS_9allocatorIcEEEEEEPvEEEENS7_ISC_EEE6secondB7v160006Ev, symObjAddr: 0x3E0C, symBinAddr: 0x100004908, symSize: 0x24 }
  - { offsetInCU: 0x1ABE9, offset: 0x1ABE9, size: 0x8, addend: 0x0, symName: __ZNSt3__122__compressed_pair_elemINS_9allocatorINS_11__hash_nodeINS_17__hash_value_typeIcNS_12basic_stringIcNS_11char_traitsIcEENS1_IcEEEEEEPvEEEELi1ELb1EE5__getB7v160006Ev, symObjAddr: 0x3E30, symBinAddr: 0x10000492C, symSize: 0x14 }
  - { offsetInCU: 0x1AC0F, offset: 0x1AC0F, size: 0x8, addend: 0x0, symName: __ZNSt3__19allocatorINS_11__hash_nodeINS_17__hash_value_typeIcNS_12basic_stringIcNS_11char_traitsIcEENS0_IcEEEEEEPvEEE8allocateB7v160006Em, symObjAddr: 0x3E44, symBinAddr: 0x100004940, symSize: 0x8C }
  - { offsetInCU: 0x1AC4E, offset: 0x1AC4E, size: 0x8, addend: 0x0, symName: __ZNSt3__116allocator_traitsINS_9allocatorINS_11__hash_nodeINS_17__hash_value_typeIcNS_12basic_stringIcNS_11char_traitsIcEENS1_IcEEEEEEPvEEEEE8max_sizeB7v160006ISC_vEEmRKSC_, symObjAddr: 0x3ED0, symBinAddr: 0x1000049CC, symSize: 0x24 }
  - { offsetInCU: 0x1AC7C, offset: 0x1AC7C, size: 0x8, addend: 0x0, symName: __ZNKSt3__19allocatorINS_11__hash_nodeINS_17__hash_value_typeIcNS_12basic_stringIcNS_11char_traitsIcEENS0_IcEEEEEEPvEEE8max_sizeB7v160006Ev, symObjAddr: 0x3F50, symBinAddr: 0x100004A4C, symSize: 0x18 }
  - { offsetInCU: 0x1ACA2, offset: 0x1ACA2, size: 0x8, addend: 0x0, symName: __ZNSt3__126__hash_map_node_destructorINS_9allocatorINS_11__hash_nodeINS_17__hash_value_typeIcNS_12basic_stringIcNS_11char_traitsIcEENS1_IcEEEEEEPvEEEEEC2B7v160006ERSC_, symObjAddr: 0x3F8C, symBinAddr: 0x100004A88, symSize: 0x28 }
  - { offsetInCU: 0x1ACDB, offset: 0x1ACDB, size: 0x8, addend: 0x0, symName: __ZNSt3__110unique_ptrINS_11__hash_nodeINS_17__hash_value_typeIcNS_12basic_stringIcNS_11char_traitsIcEENS_9allocatorIcEEEEEEPvEENS_26__hash_map_node_destructorINS6_ISB_EEEEEC2B7v160006ILb1EvEEPSB_NS_16__dependent_typeINS_27__unique_ptr_deleter_sfinaeISE_EEXT_EE20__good_rval_ref_typeE, symObjAddr: 0x3FB4, symBinAddr: 0x100004AB0, symSize: 0x5C }
  - { offsetInCU: 0x1AD2C, offset: 0x1AD2C, size: 0x8, addend: 0x0, symName: __ZNSt3__117__compressed_pairIPNS_11__hash_nodeINS_17__hash_value_typeIcNS_12basic_stringIcNS_11char_traitsIcEENS_9allocatorIcEEEEEEPvEENS_26__hash_map_node_destructorINS6_ISB_EEEEEC1B7v160006IRSC_SF_EEOT_OT0_, symObjAddr: 0x4010, symBinAddr: 0x100004B0C, symSize: 0x3C }
  - { offsetInCU: 0x1AD84, offset: 0x1AD84, size: 0x8, addend: 0x0, symName: __ZNSt3__117__compressed_pairIPNS_11__hash_nodeINS_17__hash_value_typeIcNS_12basic_stringIcNS_11char_traitsIcEENS_9allocatorIcEEEEEEPvEENS_26__hash_map_node_destructorINS6_ISB_EEEEEC2B7v160006IRSC_SF_EEOT_OT0_, symObjAddr: 0x404C, symBinAddr: 0x100004B48, symSize: 0x48 }
  - { offsetInCU: 0x1ADDC, offset: 0x1ADDC, size: 0x8, addend: 0x0, symName: __ZNSt3__122__compressed_pair_elemIPNS_11__hash_nodeINS_17__hash_value_typeIcNS_12basic_stringIcNS_11char_traitsIcEENS_9allocatorIcEEEEEEPvEELi0ELb0EEC2B7v160006IRSC_vEEOT_, symObjAddr: 0x4094, symBinAddr: 0x100004B90, symSize: 0x24 }
  - { offsetInCU: 0x1AE1E, offset: 0x1AE1E, size: 0x8, addend: 0x0, symName: __ZNSt3__122__compressed_pair_elemINS_26__hash_map_node_destructorINS_9allocatorINS_11__hash_nodeINS_17__hash_value_typeIcNS_12basic_stringIcNS_11char_traitsIcEENS2_IcEEEEEEPvEEEEEELi1ELb0EEC2B7v160006ISE_vEEOT_, symObjAddr: 0x40B8, symBinAddr: 0x100004BB4, symSize: 0x24 }
  - { offsetInCU: 0x1AE60, offset: 0x1AE60, size: 0x8, addend: 0x0, symName: __ZNSt3__19allocatorINS_11__hash_nodeINS_17__hash_value_typeIcNS_12basic_stringIcNS_11char_traitsIcEENS0_IcEEEEEEPvEEE9constructB7v160006IKcJRSD_EEEvPT_DpOT0_, symObjAddr: 0x40DC, symBinAddr: 0x100004BD8, symSize: 0x28 }
  - { offsetInCU: 0x1AEB6, offset: 0x1AEB6, size: 0x8, addend: 0x0, symName: __ZNKSt3__117__compressed_pairIPNS_11__hash_nodeINS_17__hash_value_typeIcNS_12basic_stringIcNS_11char_traitsIcEENS_9allocatorIcEEEEEEPvEENS_26__hash_map_node_destructorINS6_ISB_EEEEE5firstB7v160006Ev, symObjAddr: 0x4104, symBinAddr: 0x100004C00, symSize: 0x24 }
  - { offsetInCU: 0x1AEDC, offset: 0x1AEDC, size: 0x8, addend: 0x0, symName: __ZNKSt3__122__compressed_pair_elemIPNS_11__hash_nodeINS_17__hash_value_typeIcNS_12basic_stringIcNS_11char_traitsIcEENS_9allocatorIcEEEEEEPvEELi0ELb0EE5__getB7v160006Ev, symObjAddr: 0x4128, symBinAddr: 0x100004C24, symSize: 0x14 }
  - { offsetInCU: 0x1AF02, offset: 0x1AF02, size: 0x8, addend: 0x0, symName: __ZNSt3__117__compressed_pairIPNS_11__hash_nodeINS_17__hash_value_typeIcNS_12basic_stringIcNS_11char_traitsIcEENS_9allocatorIcEEEEEEPvEENS_26__hash_map_node_destructorINS6_ISB_EEEEE6secondB7v160006Ev, symObjAddr: 0x413C, symBinAddr: 0x100004C38, symSize: 0x28 }
  - { offsetInCU: 0x1AF28, offset: 0x1AF28, size: 0x8, addend: 0x0, symName: __ZNSt3__122__compressed_pair_elemINS_26__hash_map_node_destructorINS_9allocatorINS_11__hash_nodeINS_17__hash_value_typeIcNS_12basic_stringIcNS_11char_traitsIcEENS2_IcEEEEEEPvEEEEEELi1ELb0EE5__getB7v160006Ev, symObjAddr: 0x4164, symBinAddr: 0x100004C60, symSize: 0x14 }
  - { offsetInCU: 0x1AF4E, offset: 0x1AF4E, size: 0x8, addend: 0x0, symName: __ZNSt3__19allocatorINS_11__hash_nodeINS_17__hash_value_typeIcNS_12basic_stringIcNS_11char_traitsIcEENS0_IcEEEEEEPvEEE9constructB7v160006IS7_JEEEvPT_DpOT0_, symObjAddr: 0x4178, symBinAddr: 0x100004C74, symSize: 0x28 }
  - { offsetInCU: 0x1AF90, offset: 0x1AF90, size: 0x8, addend: 0x0, symName: __ZNKSt3__122__unordered_map_hasherIcNS_17__hash_value_typeIcNS_12basic_stringIcNS_11char_traitsIcEENS_9allocatorIcEEEEEENS_4hashIcEENS_8equal_toIcEELb1EEclB7v160006ERKS8_, symObjAddr: 0x41A0, symBinAddr: 0x100004C9C, symSize: 0x40 }
  - { offsetInCU: 0x1AFC5, offset: 0x1AFC5, size: 0x8, addend: 0x0, symName: __ZNSt3__112__hash_tableINS_17__hash_value_typeIcNS_12basic_stringIcNS_11char_traitsIcEENS_9allocatorIcEEEEEENS_22__unordered_map_hasherIcS8_NS_4hashIcEENS_8equal_toIcEELb1EEENS_21__unordered_map_equalIcS8_SD_SB_Lb1EEENS5_IS8_EEE28__node_insert_unique_prepareB7v160006EmRS8_, symObjAddr: 0x41E0, symBinAddr: 0x100004CDC, symSize: 0x244 }
  - { offsetInCU: 0x1B046, offset: 0x1B046, size: 0x8, addend: 0x0, symName: __ZNSt3__112__hash_tableINS_17__hash_value_typeIcNS_12basic_stringIcNS_11char_traitsIcEENS_9allocatorIcEEEEEENS_22__unordered_map_hasherIcS8_NS_4hashIcEENS_8equal_toIcEELb1EEENS_21__unordered_map_equalIcS8_SD_SB_Lb1EEENS5_IS8_EEE28__node_insert_unique_performB7v160006EPNS_11__hash_nodeIS8_PvEE, symObjAddr: 0x4424, symBinAddr: 0x100004F20, symSize: 0x154 }
  - { offsetInCU: 0x1B0AA, offset: 0x1B0AA, size: 0x8, addend: 0x0, symName: __ZNSt3__116__hash_node_baseIPNS_11__hash_nodeINS_17__hash_value_typeIcNS_12basic_stringIcNS_11char_traitsIcEENS_9allocatorIcEEEEEEPvEEE5__ptrB7v160006Ev, symObjAddr: 0x4578, symBinAddr: 0x100005074, symSize: 0x24 }
  - { offsetInCU: 0x1B0D0, offset: 0x1B0D0, size: 0x8, addend: 0x0, symName: __ZNSt3__14pairINS_15__hash_iteratorIPNS_11__hash_nodeINS_17__hash_value_typeIcNS_12basic_stringIcNS_11char_traitsIcEENS_9allocatorIcEEEEEEPvEEEEbEC1B7v160006ERKSE_RKb, symObjAddr: 0x459C, symBinAddr: 0x100005098, symSize: 0x3C }
  - { offsetInCU: 0x1B116, offset: 0x1B116, size: 0x8, addend: 0x0, symName: __ZNKSt3__121__unordered_map_equalIcNS_17__hash_value_typeIcNS_12basic_stringIcNS_11char_traitsIcEENS_9allocatorIcEEEEEENS_8equal_toIcEENS_4hashIcEELb1EEclB7v160006ERKS8_SF_, symObjAddr: 0x45D8, symBinAddr: 0x1000050D4, symSize: 0x54 }
  - { offsetInCU: 0x1B15A, offset: 0x1B15A, size: 0x8, addend: 0x0, symName: __ZNSt3__112__hash_tableINS_17__hash_value_typeIcNS_12basic_stringIcNS_11char_traitsIcEENS_9allocatorIcEEEEEENS_22__unordered_map_hasherIcS8_NS_4hashIcEENS_8equal_toIcEELb1EEENS_21__unordered_map_equalIcS8_SD_SB_Lb1EEENS5_IS8_EEE4sizeB7v160006Ev, symObjAddr: 0x462C, symBinAddr: 0x100005128, symSize: 0x28 }
  - { offsetInCU: 0x1B180, offset: 0x1B180, size: 0x8, addend: 0x0, symName: __ZNSt3__112__hash_tableINS_17__hash_value_typeIcNS_12basic_stringIcNS_11char_traitsIcEENS_9allocatorIcEEEEEENS_22__unordered_map_hasherIcS8_NS_4hashIcEENS_8equal_toIcEELb1EEENS_21__unordered_map_equalIcS8_SD_SB_Lb1EEENS5_IS8_EEE15max_load_factorB7v160006Ev, symObjAddr: 0x4654, symBinAddr: 0x100005150, symSize: 0x28 }
  - { offsetInCU: 0x1B1A6, offset: 0x1B1A6, size: 0x8, addend: 0x0, symName: __ZNSt3__112__hash_tableINS_17__hash_value_typeIcNS_12basic_stringIcNS_11char_traitsIcEENS_9allocatorIcEEEEEENS_22__unordered_map_hasherIcS8_NS_4hashIcEENS_8equal_toIcEELb1EEENS_21__unordered_map_equalIcS8_SD_SB_Lb1EEENS5_IS8_EEE15__rehash_uniqueB7v160006Em, symObjAddr: 0x467C, symBinAddr: 0x100005178, symSize: 0x2C }
  - { offsetInCU: 0x1B1DA, offset: 0x1B1DA, size: 0x8, addend: 0x0, symName: __Z4ceilB7v160006f, symObjAddr: 0x4724, symBinAddr: 0x100005220, symSize: 0x18 }
  - { offsetInCU: 0x1B209, offset: 0x1B209, size: 0x8, addend: 0x0, symName: __ZNSt3__117__compressed_pairImNS_22__unordered_map_hasherIcNS_17__hash_value_typeIcNS_12basic_stringIcNS_11char_traitsIcEENS_9allocatorIcEEEEEENS_4hashIcEENS_8equal_toIcEELb1EEEE5firstB7v160006Ev, symObjAddr: 0x473C, symBinAddr: 0x100005238, symSize: 0x24 }
  - { offsetInCU: 0x1B22F, offset: 0x1B22F, size: 0x8, addend: 0x0, symName: __ZNSt3__122__compressed_pair_elemImLi0ELb0EE5__getB7v160006Ev, symObjAddr: 0x4760, symBinAddr: 0x10000525C, symSize: 0x14 }
  - { offsetInCU: 0x1B255, offset: 0x1B255, size: 0x8, addend: 0x0, symName: __ZNSt3__117__compressed_pairIfNS_21__unordered_map_equalIcNS_17__hash_value_typeIcNS_12basic_stringIcNS_11char_traitsIcEENS_9allocatorIcEEEEEENS_8equal_toIcEENS_4hashIcEELb1EEEE5firstB7v160006Ev, symObjAddr: 0x4774, symBinAddr: 0x100005270, symSize: 0x24 }
  - { offsetInCU: 0x1B27B, offset: 0x1B27B, size: 0x8, addend: 0x0, symName: __ZNSt3__122__compressed_pair_elemIfLi0ELb0EE5__getB7v160006Ev, symObjAddr: 0x4798, symBinAddr: 0x100005294, symSize: 0x14 }
  - { offsetInCU: 0x1B2A1, offset: 0x1B2A1, size: 0x8, addend: 0x0, symName: __ZNSt3__112__hash_tableINS_17__hash_value_typeIcNS_12basic_stringIcNS_11char_traitsIcEENS_9allocatorIcEEEEEENS_22__unordered_map_hasherIcS8_NS_4hashIcEENS_8equal_toIcEELb1EEENS_21__unordered_map_equalIcS8_SD_SB_Lb1EEENS5_IS8_EEE8__rehashILb1EEEvm, symObjAddr: 0x47AC, symBinAddr: 0x1000052A8, symSize: 0x1A8 }
  - { offsetInCU: 0x1B2F1, offset: 0x1B2F1, size: 0x8, addend: 0x0, symName: __ZNSt3__112__hash_tableINS_17__hash_value_typeIcNS_12basic_stringIcNS_11char_traitsIcEENS_9allocatorIcEEEEEENS_22__unordered_map_hasherIcS8_NS_4hashIcEENS_8equal_toIcEELb1EEENS_21__unordered_map_equalIcS8_SD_SB_Lb1EEENS5_IS8_EEE11__do_rehashILb1EEEvm, symObjAddr: 0x4954, symBinAddr: 0x100005450, symSize: 0x290 }
  - { offsetInCU: 0x1B3D4, offset: 0x1B3D4, size: 0x8, addend: 0x0, symName: __ZNSt3__110unique_ptrIA_PNS_16__hash_node_baseIPNS_11__hash_nodeINS_17__hash_value_typeIcNS_12basic_stringIcNS_11char_traitsIcEENS_9allocatorIcEEEEEEPvEEEENS_25__bucket_list_deallocatorINS7_ISF_EEEEE11get_deleterB7v160006Ev, symObjAddr: 0x4C60, symBinAddr: 0x10000575C, symSize: 0x24 }
  - { offsetInCU: 0x1B3FA, offset: 0x1B3FA, size: 0x8, addend: 0x0, symName: __ZNSt3__125__bucket_list_deallocatorINS_9allocatorIPNS_16__hash_node_baseIPNS_11__hash_nodeINS_17__hash_value_typeIcNS_12basic_stringIcNS_11char_traitsIcEENS1_IcEEEEEEPvEEEEEEE7__allocB7v160006Ev, symObjAddr: 0x4C84, symBinAddr: 0x100005780, symSize: 0x24 }
  - { offsetInCU: 0x1B420, offset: 0x1B420, size: 0x8, addend: 0x0, symName: __ZNSt3__110unique_ptrIA_PNS_16__hash_node_baseIPNS_11__hash_nodeINS_17__hash_value_typeIcNS_12basic_stringIcNS_11char_traitsIcEENS_9allocatorIcEEEEEEPvEEEENS_25__bucket_list_deallocatorINS7_ISF_EEEEE5resetB7v160006IPSF_EENS_9enable_ifIXsr28_CheckArrayPointerConversionIT_EE5valueEvE4typeESO_, symObjAddr: 0x4CA8, symBinAddr: 0x1000057A4, symSize: 0x78 }
  - { offsetInCU: 0x1B46D, offset: 0x1B46D, size: 0x8, addend: 0x0, symName: __ZNSt3__116allocator_traitsINS_9allocatorIPNS_16__hash_node_baseIPNS_11__hash_nodeINS_17__hash_value_typeIcNS_12basic_stringIcNS_11char_traitsIcEENS1_IcEEEEEEPvEEEEEEE8allocateB7v160006ERSG_m, symObjAddr: 0x4D20, symBinAddr: 0x10000581C, symSize: 0x2C }
  - { offsetInCU: 0x1B4A0, offset: 0x1B4A0, size: 0x8, addend: 0x0, symName: __ZNSt3__125__bucket_list_deallocatorINS_9allocatorIPNS_16__hash_node_baseIPNS_11__hash_nodeINS_17__hash_value_typeIcNS_12basic_stringIcNS_11char_traitsIcEENS1_IcEEEEEEPvEEEEEEE4sizeB7v160006Ev, symObjAddr: 0x4D4C, symBinAddr: 0x100005848, symSize: 0x24 }
  - { offsetInCU: 0x1B4C6, offset: 0x1B4C6, size: 0x8, addend: 0x0, symName: __ZNSt3__117__compressed_pairINS_16__hash_node_baseIPNS_11__hash_nodeINS_17__hash_value_typeIcNS_12basic_stringIcNS_11char_traitsIcEENS_9allocatorIcEEEEEEPvEEEENS7_ISC_EEE5firstB7v160006Ev, symObjAddr: 0x4D70, symBinAddr: 0x10000586C, symSize: 0x24 }
  - { offsetInCU: 0x1B4EC, offset: 0x1B4EC, size: 0x8, addend: 0x0, symName: __ZNSt3__117__compressed_pairIPPNS_16__hash_node_baseIPNS_11__hash_nodeINS_17__hash_value_typeIcNS_12basic_stringIcNS_11char_traitsIcEENS_9allocatorIcEEEEEEPvEEEENS_25__bucket_list_deallocatorINS7_ISF_EEEEE6secondB7v160006Ev, symObjAddr: 0x4D94, symBinAddr: 0x100005890, symSize: 0x28 }
  - { offsetInCU: 0x1B512, offset: 0x1B512, size: 0x8, addend: 0x0, symName: __ZNSt3__122__compressed_pair_elemINS_25__bucket_list_deallocatorINS_9allocatorIPNS_16__hash_node_baseIPNS_11__hash_nodeINS_17__hash_value_typeIcNS_12basic_stringIcNS_11char_traitsIcEENS2_IcEEEEEEPvEEEEEEEELi1ELb0EE5__getB7v160006Ev, symObjAddr: 0x4DBC, symBinAddr: 0x1000058B8, symSize: 0x14 }
  - { offsetInCU: 0x1B538, offset: 0x1B538, size: 0x8, addend: 0x0, symName: __ZNSt3__117__compressed_pairImNS_9allocatorIPNS_16__hash_node_baseIPNS_11__hash_nodeINS_17__hash_value_typeIcNS_12basic_stringIcNS_11char_traitsIcEENS1_IcEEEEEEPvEEEEEEE6secondB7v160006Ev, symObjAddr: 0x4DD0, symBinAddr: 0x1000058CC, symSize: 0x24 }
  - { offsetInCU: 0x1B55E, offset: 0x1B55E, size: 0x8, addend: 0x0, symName: __ZNSt3__122__compressed_pair_elemINS_9allocatorIPNS_16__hash_node_baseIPNS_11__hash_nodeINS_17__hash_value_typeIcNS_12basic_stringIcNS_11char_traitsIcEENS1_IcEEEEEEPvEEEEEELi1ELb1EE5__getB7v160006Ev, symObjAddr: 0x4DF4, symBinAddr: 0x1000058F0, symSize: 0x14 }
  - { offsetInCU: 0x1B584, offset: 0x1B584, size: 0x8, addend: 0x0, symName: __ZNSt3__117__compressed_pairIPPNS_16__hash_node_baseIPNS_11__hash_nodeINS_17__hash_value_typeIcNS_12basic_stringIcNS_11char_traitsIcEENS_9allocatorIcEEEEEEPvEEEENS_25__bucket_list_deallocatorINS7_ISF_EEEEE5firstB7v160006Ev, symObjAddr: 0x4E08, symBinAddr: 0x100005904, symSize: 0x24 }
  - { offsetInCU: 0x1B5AA, offset: 0x1B5AA, size: 0x8, addend: 0x0, symName: __ZNSt3__125__bucket_list_deallocatorINS_9allocatorIPNS_16__hash_node_baseIPNS_11__hash_nodeINS_17__hash_value_typeIcNS_12basic_stringIcNS_11char_traitsIcEENS1_IcEEEEEEPvEEEEEEEclB7v160006EPSF_, symObjAddr: 0x4E2C, symBinAddr: 0x100005928, symSize: 0x58 }
  - { offsetInCU: 0x1B5DF, offset: 0x1B5DF, size: 0x8, addend: 0x0, symName: __ZNSt3__122__compressed_pair_elemIPPNS_16__hash_node_baseIPNS_11__hash_nodeINS_17__hash_value_typeIcNS_12basic_stringIcNS_11char_traitsIcEENS_9allocatorIcEEEEEEPvEEEELi0ELb0EE5__getB7v160006Ev, symObjAddr: 0x4E84, symBinAddr: 0x100005980, symSize: 0x14 }
  - { offsetInCU: 0x1B605, offset: 0x1B605, size: 0x8, addend: 0x0, symName: __ZNSt3__116allocator_traitsINS_9allocatorIPNS_16__hash_node_baseIPNS_11__hash_nodeINS_17__hash_value_typeIcNS_12basic_stringIcNS_11char_traitsIcEENS1_IcEEEEEEPvEEEEEEE10deallocateB7v160006ERSG_PSF_m, symObjAddr: 0x4E98, symBinAddr: 0x100005994, symSize: 0x34 }
  - { offsetInCU: 0x1B647, offset: 0x1B647, size: 0x8, addend: 0x0, symName: __ZNSt3__19allocatorIPNS_16__hash_node_baseIPNS_11__hash_nodeINS_17__hash_value_typeIcNS_12basic_stringIcNS_11char_traitsIcEENS0_IcEEEEEEPvEEEEE10deallocateB7v160006EPSE_m, symObjAddr: 0x4ECC, symBinAddr: 0x1000059C8, symSize: 0x70 }
  - { offsetInCU: 0x1B689, offset: 0x1B689, size: 0x8, addend: 0x0, symName: __ZNSt3__19allocatorIPNS_16__hash_node_baseIPNS_11__hash_nodeINS_17__hash_value_typeIcNS_12basic_stringIcNS_11char_traitsIcEENS0_IcEEEEEEPvEEEEE8allocateB7v160006Em, symObjAddr: 0x4F3C, symBinAddr: 0x100005A38, symSize: 0x84 }
  - { offsetInCU: 0x1B6C8, offset: 0x1B6C8, size: 0x8, addend: 0x0, symName: __ZNSt3__116allocator_traitsINS_9allocatorIPNS_16__hash_node_baseIPNS_11__hash_nodeINS_17__hash_value_typeIcNS_12basic_stringIcNS_11char_traitsIcEENS1_IcEEEEEEPvEEEEEEE8max_sizeB7v160006ISG_vEEmRKSG_, symObjAddr: 0x4FC0, symBinAddr: 0x100005ABC, symSize: 0x24 }
  - { offsetInCU: 0x1B6F6, offset: 0x1B6F6, size: 0x8, addend: 0x0, symName: __ZNKSt3__19allocatorIPNS_16__hash_node_baseIPNS_11__hash_nodeINS_17__hash_value_typeIcNS_12basic_stringIcNS_11char_traitsIcEENS0_IcEEEEEEPvEEEEE8max_sizeB7v160006Ev, symObjAddr: 0x4FE4, symBinAddr: 0x100005AE0, symSize: 0x14 }
  - { offsetInCU: 0x1B71C, offset: 0x1B71C, size: 0x8, addend: 0x0, symName: __ZNSt3__117__compressed_pairImNS_9allocatorIPNS_16__hash_node_baseIPNS_11__hash_nodeINS_17__hash_value_typeIcNS_12basic_stringIcNS_11char_traitsIcEENS1_IcEEEEEEPvEEEEEEE5firstB7v160006Ev, symObjAddr: 0x4FF8, symBinAddr: 0x100005AF4, symSize: 0x24 }
  - { offsetInCU: 0x1B742, offset: 0x1B742, size: 0x8, addend: 0x0, symName: __ZNSt3__122__compressed_pair_elemINS_16__hash_node_baseIPNS_11__hash_nodeINS_17__hash_value_typeIcNS_12basic_stringIcNS_11char_traitsIcEENS_9allocatorIcEEEEEEPvEEEELi0ELb0EE5__getB7v160006Ev, symObjAddr: 0x501C, symBinAddr: 0x100005B18, symSize: 0x14 }
  - { offsetInCU: 0x1B772, offset: 0x1B772, size: 0x8, addend: 0x0, symName: __ZNKSt3__16__lessImmEclB7v160006ERKmS3_, symObjAddr: 0x50A0, symBinAddr: 0x100005B9C, symSize: 0x34 }
  - { offsetInCU: 0x1B7B4, offset: 0x1B7B4, size: 0x8, addend: 0x0, symName: __ZNSt3__14pairINS_15__hash_iteratorIPNS_11__hash_nodeINS_17__hash_value_typeIcNS_12basic_stringIcNS_11char_traitsIcEENS_9allocatorIcEEEEEEPvEEEEbEC2B7v160006ERKSE_RKb, symObjAddr: 0x50D4, symBinAddr: 0x100005BD0, symSize: 0x38 }
  - { offsetInCU: 0x1B7FA, offset: 0x1B7FA, size: 0x8, addend: 0x0, symName: __ZNSt3__14pairINS_19__hash_map_iteratorINS_15__hash_iteratorIPNS_11__hash_nodeINS_17__hash_value_typeIcNS_12basic_stringIcNS_11char_traitsIcEENS_9allocatorIcEEEEEEPvEEEEEEbEC2B7v160006ISF_bEERKNS0_IT_T0_EE, symObjAddr: 0x510C, symBinAddr: 0x100005C08, symSize: 0x50 }
  - { offsetInCU: 0x1B844, offset: 0x1B844, size: 0x8, addend: 0x0, symName: __ZNSt3__117__compressed_pairIPNS_11__hash_nodeINS_17__hash_value_typeIcNS_12basic_stringIcNS_11char_traitsIcEENS_9allocatorIcEEEEEEPvEENS_26__hash_map_node_destructorINS6_ISB_EEEEE5firstB7v160006Ev, symObjAddr: 0x515C, symBinAddr: 0x100005C58, symSize: 0x24 }
  - { offsetInCU: 0x1B86A, offset: 0x1B86A, size: 0x8, addend: 0x0, symName: __ZNSt3__122__compressed_pair_elemIPNS_11__hash_nodeINS_17__hash_value_typeIcNS_12basic_stringIcNS_11char_traitsIcEENS_9allocatorIcEEEEEEPvEELi0ELb0EE5__getB7v160006Ev, symObjAddr: 0x5180, symBinAddr: 0x100005C7C, symSize: 0x14 }
  - { offsetInCU: 0x1B890, offset: 0x1B890, size: 0x8, addend: 0x0, symName: __ZNSt3__110unique_ptrINS_11__hash_nodeINS_17__hash_value_typeIcNS_12basic_stringIcNS_11char_traitsIcEENS_9allocatorIcEEEEEEPvEENS_26__hash_map_node_destructorINS6_ISB_EEEEED2B7v160006Ev, symObjAddr: 0x5194, symBinAddr: 0x100005C90, symSize: 0x30 }
  - { offsetInCU: 0x1B8BA, offset: 0x1B8BA, size: 0x8, addend: 0x0, symName: __ZNSt3__110unique_ptrINS_11__hash_nodeINS_17__hash_value_typeIcNS_12basic_stringIcNS_11char_traitsIcEENS_9allocatorIcEEEEEEPvEENS_26__hash_map_node_destructorINS6_ISB_EEEEE5resetB7v160006EPSB_, symObjAddr: 0x51C4, symBinAddr: 0x100005CC0, symSize: 0x78 }
  - { offsetInCU: 0x1B8FE, offset: 0x1B8FE, size: 0x8, addend: 0x0, symName: __ZNSt3__126__hash_map_node_destructorINS_9allocatorINS_11__hash_nodeINS_17__hash_value_typeIcNS_12basic_stringIcNS_11char_traitsIcEENS1_IcEEEEEEPvEEEEEclB7v160006EPSB_, symObjAddr: 0x523C, symBinAddr: 0x100005D38, symSize: 0xE4 }
  - { offsetInCU: 0x1B933, offset: 0x1B933, size: 0x8, addend: 0x0, symName: __ZNSt3__116allocator_traitsINS_9allocatorINS_11__hash_nodeINS_17__hash_value_typeIcNS_12basic_stringIcNS_11char_traitsIcEENS1_IcEEEEEEPvEEEEE7destroyB7v160006IS8_vvEEvRSC_PT_, symObjAddr: 0x5320, symBinAddr: 0x100005E1C, symSize: 0x28 }
  - { offsetInCU: 0x1B96D, offset: 0x1B96D, size: 0x8, addend: 0x0, symName: __ZNSt3__116allocator_traitsINS_9allocatorINS_11__hash_nodeINS_17__hash_value_typeIcNS_12basic_stringIcNS_11char_traitsIcEENS1_IcEEEEEEPvEEEEE7destroyB7v160006IKcvvEEvRSC_PT_, symObjAddr: 0x5348, symBinAddr: 0x100005E44, symSize: 0x14 }
  - { offsetInCU: 0x1B9A7, offset: 0x1B9A7, size: 0x8, addend: 0x0, symName: __ZNSt3__116allocator_traitsINS_9allocatorINS_11__hash_nodeINS_17__hash_value_typeIcNS_12basic_stringIcNS_11char_traitsIcEENS1_IcEEEEEEPvEEEEE10deallocateB7v160006ERSC_PSB_m, symObjAddr: 0x535C, symBinAddr: 0x100005E58, symSize: 0x34 }
  - { offsetInCU: 0x1B9E9, offset: 0x1B9E9, size: 0x8, addend: 0x0, symName: __ZNSt3__19allocatorINS_11__hash_nodeINS_17__hash_value_typeIcNS_12basic_stringIcNS_11char_traitsIcEENS0_IcEEEEEEPvEEE10deallocateB7v160006EPSA_m, symObjAddr: 0x5390, symBinAddr: 0x100005E8C, symSize: 0x74 }
  - { offsetInCU: 0x1BA2B, offset: 0x1BA2B, size: 0x8, addend: 0x0, symName: __ZNSt3__111char_traitsIcE6lengthEPKc, symObjAddr: 0x5404, symBinAddr: 0x100005F00, symSize: 0x48 }
  - { offsetInCU: 0x1BA59, offset: 0x1BA59, size: 0x8, addend: 0x0, symName: __ZNSt3__116allocator_traitsINS_9allocatorIcEEE37select_on_container_copy_constructionB7v160006IS2_vvEES2_RKS2_, symObjAddr: 0x544C, symBinAddr: 0x100005F48, symSize: 0x10 }
  - { offsetInCU: 0x1BA88, offset: 0x1BA88, size: 0x8, addend: 0x0, symName: __ZNKSt3__112basic_stringIcNS_11char_traitsIcEENS_9allocatorIcEEE13get_allocatorB7v160006Ev, symObjAddr: 0x545C, symBinAddr: 0x100005F58, symSize: 0x24 }
  - { offsetInCU: 0x1BAAE, offset: 0x1BAAE, size: 0x8, addend: 0x0, symName: __ZNSt3__112basic_stringIcNS_11char_traitsIcEENS_9allocatorIcEEEC1B7v160006ENS_24__uninitialized_size_tagEmRKS4_, symObjAddr: 0x5480, symBinAddr: 0x100005F7C, symSize: 0x3C }
  - { offsetInCU: 0x1BB01, offset: 0x1BB01, size: 0x8, addend: 0x0, symName: __ZNSt3__112basic_stringIcNS_11char_traitsIcEENS_9allocatorIcEEE13__get_pointerB7v160006Ev, symObjAddr: 0x54D0, symBinAddr: 0x100005FCC, symSize: 0x54 }
  - { offsetInCU: 0x1BB27, offset: 0x1BB27, size: 0x8, addend: 0x0, symName: __ZNSt3__111char_traitsIcE4copyEPcPKcm, symObjAddr: 0x5524, symBinAddr: 0x100006020, symSize: 0x80 }
  - { offsetInCU: 0x1BB66, offset: 0x1BB66, size: 0x8, addend: 0x0, symName: __ZNKSt3__112basic_stringIcNS_11char_traitsIcEENS_9allocatorIcEEE4dataB7v160006Ev, symObjAddr: 0x55A4, symBinAddr: 0x1000060A0, symSize: 0x28 }
  - { offsetInCU: 0x1BB8C, offset: 0x1BB8C, size: 0x8, addend: 0x0, symName: __ZNSt3__111char_traitsIcE6assignEPcmc, symObjAddr: 0x55CC, symBinAddr: 0x1000060C8, symSize: 0x58 }
  - { offsetInCU: 0x1BBCB, offset: 0x1BBCB, size: 0x8, addend: 0x0, symName: __ZNKSt3__112basic_stringIcNS_11char_traitsIcEENS_9allocatorIcEEE7__allocB7v160006Ev, symObjAddr: 0x5648, symBinAddr: 0x100006144, symSize: 0x24 }
  - { offsetInCU: 0x1BBF1, offset: 0x1BBF1, size: 0x8, addend: 0x0, symName: __ZNKSt3__117__compressed_pairINS_12basic_stringIcNS_11char_traitsIcEENS_9allocatorIcEEE5__repES5_E6secondB7v160006Ev, symObjAddr: 0x566C, symBinAddr: 0x100006168, symSize: 0x24 }
  - { offsetInCU: 0x1BC17, offset: 0x1BC17, size: 0x8, addend: 0x0, symName: __ZNKSt3__122__compressed_pair_elemINS_9allocatorIcEELi1ELb1EE5__getB7v160006Ev, symObjAddr: 0x5690, symBinAddr: 0x10000618C, symSize: 0x14 }
  - { offsetInCU: 0x1BC3D, offset: 0x1BC3D, size: 0x8, addend: 0x0, symName: __ZNSt3__112basic_stringIcNS_11char_traitsIcEENS_9allocatorIcEEEC2B7v160006ENS_24__uninitialized_size_tagEmRKS4_, symObjAddr: 0x56A4, symBinAddr: 0x1000061A0, symSize: 0x118 }
  - { offsetInCU: 0x1BCC2, offset: 0x1BCC2, size: 0x8, addend: 0x0, symName: __ZNSt3__117__compressed_pairINS_12basic_stringIcNS_11char_traitsIcEENS_9allocatorIcEEE5__repES5_EC1B7v160006INS_18__default_init_tagERKS5_EEOT_OT0_, symObjAddr: 0x57BC, symBinAddr: 0x1000062B8, symSize: 0x3C }
  - { offsetInCU: 0x1BD1A, offset: 0x1BD1A, size: 0x8, addend: 0x0, symName: __ZNKSt3__112basic_stringIcNS_11char_traitsIcEENS_9allocatorIcEEE8max_sizeB7v160006Ev, symObjAddr: 0x57F8, symBinAddr: 0x1000062F4, symSize: 0xAC }
  - { offsetInCU: 0x1BD6C, offset: 0x1BD6C, size: 0x8, addend: 0x0, symName: __ZNKSt3__112basic_stringIcNS_11char_traitsIcEENS_9allocatorIcEEE20__throw_length_errorB7v160006Ev, symObjAddr: 0x58A4, symBinAddr: 0x1000063A0, symSize: 0x1C }
  - { offsetInCU: 0x1BD92, offset: 0x1BD92, size: 0x8, addend: 0x0, symName: __ZNSt3__112basic_stringIcNS_11char_traitsIcEENS_9allocatorIcEEE13__fits_in_ssoB7v160006Em, symObjAddr: 0x58C0, symBinAddr: 0x1000063BC, symSize: 0x4C }
  - { offsetInCU: 0x1BDB6, offset: 0x1BDB6, size: 0x8, addend: 0x0, symName: __ZNSt3__117__compressed_pairINS_12basic_stringIcNS_11char_traitsIcEENS_9allocatorIcEEE5__repES5_E5firstB7v160006Ev, symObjAddr: 0x590C, symBinAddr: 0x100006408, symSize: 0x24 }
  - { offsetInCU: 0x1BDDC, offset: 0x1BDDC, size: 0x8, addend: 0x0, symName: __ZNSt3__112basic_stringIcNS_11char_traitsIcEENS_9allocatorIcEEE16__set_short_sizeB7v160006Em, symObjAddr: 0x5930, symBinAddr: 0x10000642C, symSize: 0x78 }
  - { offsetInCU: 0x1BE11, offset: 0x1BE11, size: 0x8, addend: 0x0, symName: __ZNSt3__112basic_stringIcNS_11char_traitsIcEENS_9allocatorIcEEE11__recommendB7v160006Em, symObjAddr: 0x59A8, symBinAddr: 0x1000064A4, symSize: 0x9C }
  - { offsetInCU: 0x1BE44, offset: 0x1BE44, size: 0x8, addend: 0x0, symName: __ZNSt3__116allocator_traitsINS_9allocatorIcEEE8allocateB7v160006ERS2_m, symObjAddr: 0x5A44, symBinAddr: 0x100006540, symSize: 0x2C }
  - { offsetInCU: 0x1BE77, offset: 0x1BE77, size: 0x8, addend: 0x0, symName: __ZNSt3__112basic_stringIcNS_11char_traitsIcEENS_9allocatorIcEEE7__allocB7v160006Ev, symObjAddr: 0x5A70, symBinAddr: 0x10000656C, symSize: 0x24 }
  - { offsetInCU: 0x1BE9D, offset: 0x1BE9D, size: 0x8, addend: 0x0, symName: __ZNSt3__112basic_stringIcNS_11char_traitsIcEENS_9allocatorIcEEE16__begin_lifetimeB7v160006EPcm, symObjAddr: 0x5A94, symBinAddr: 0x100006590, symSize: 0x14 }
  - { offsetInCU: 0x1BED0, offset: 0x1BED0, size: 0x8, addend: 0x0, symName: __ZNSt3__112basic_stringIcNS_11char_traitsIcEENS_9allocatorIcEEE14__set_long_capB7v160006Em, symObjAddr: 0x5AA8, symBinAddr: 0x1000065A4, symSize: 0x70 }
  - { offsetInCU: 0x1BF05, offset: 0x1BF05, size: 0x8, addend: 0x0, symName: __ZNSt3__112basic_stringIcNS_11char_traitsIcEENS_9allocatorIcEEE18__set_long_pointerB7v160006EPc, symObjAddr: 0x5B18, symBinAddr: 0x100006614, symSize: 0x38 }
  - { offsetInCU: 0x1BF3A, offset: 0x1BF3A, size: 0x8, addend: 0x0, symName: __ZNSt3__112basic_stringIcNS_11char_traitsIcEENS_9allocatorIcEEE15__set_long_sizeB7v160006Em, symObjAddr: 0x5B50, symBinAddr: 0x10000664C, symSize: 0x38 }
  - { offsetInCU: 0x1BF6F, offset: 0x1BF6F, size: 0x8, addend: 0x0, symName: __ZNSt3__117__compressed_pairINS_12basic_stringIcNS_11char_traitsIcEENS_9allocatorIcEEE5__repES5_EC2B7v160006INS_18__default_init_tagERKS5_EEOT_OT0_, symObjAddr: 0x5B98, symBinAddr: 0x100006694, symSize: 0x40 }
  - { offsetInCU: 0x1BFC7, offset: 0x1BFC7, size: 0x8, addend: 0x0, symName: __ZNSt3__122__compressed_pair_elemINS_12basic_stringIcNS_11char_traitsIcEENS_9allocatorIcEEE5__repELi0ELb0EEC2B7v160006ENS_18__default_init_tagE, symObjAddr: 0x5BD8, symBinAddr: 0x1000066D4, symSize: 0x14 }
  - { offsetInCU: 0x1BFFC, offset: 0x1BFFC, size: 0x8, addend: 0x0, symName: __ZNSt3__122__compressed_pair_elemINS_9allocatorIcEELi1ELb1EEC2B7v160006IRKS2_vEEOT_, symObjAddr: 0x5BEC, symBinAddr: 0x1000066E8, symSize: 0x18 }
  - { offsetInCU: 0x1C03E, offset: 0x1C03E, size: 0x8, addend: 0x0, symName: __ZNSt3__116allocator_traitsINS_9allocatorIcEEE8max_sizeB7v160006IS2_vEEmRKS2_, symObjAddr: 0x5C04, symBinAddr: 0x100006700, symSize: 0x24 }
  - { offsetInCU: 0x1C06C, offset: 0x1C06C, size: 0x8, addend: 0x0, symName: __ZNSt3__114numeric_limitsImE3maxB7v160006Ev, symObjAddr: 0x5C28, symBinAddr: 0x100006724, symSize: 0x14 }
  - { offsetInCU: 0x1C080, offset: 0x1C080, size: 0x8, addend: 0x0, symName: __ZNKSt3__19allocatorIcE8max_sizeB7v160006Ev, symObjAddr: 0x5C3C, symBinAddr: 0x100006738, symSize: 0x14 }
  - { offsetInCU: 0x1C0A6, offset: 0x1C0A6, size: 0x8, addend: 0x0, symName: __ZNSt3__123__libcpp_numeric_limitsImLb1EE3maxB7v160006Ev, symObjAddr: 0x5C50, symBinAddr: 0x10000674C, symSize: 0x8 }
  - { offsetInCU: 0x1C0BA, offset: 0x1C0BA, size: 0x8, addend: 0x0, symName: __ZNSt12length_errorC1B7v160006EPKc, symObjAddr: 0x5CBC, symBinAddr: 0x1000067B8, symSize: 0x34 }
  - { offsetInCU: 0x1C0F2, offset: 0x1C0F2, size: 0x8, addend: 0x0, symName: __ZNSt12length_errorC2B7v160006EPKc, symObjAddr: 0x5CF0, symBinAddr: 0x1000067EC, symSize: 0x4C }
  - { offsetInCU: 0x1C12A, offset: 0x1C12A, size: 0x8, addend: 0x0, symName: __ZNSt3__122__compressed_pair_elemINS_12basic_stringIcNS_11char_traitsIcEENS_9allocatorIcEEE5__repELi0ELb0EE5__getB7v160006Ev, symObjAddr: 0x5D3C, symBinAddr: 0x100006838, symSize: 0x14 }
  - { offsetInCU: 0x1C150, offset: 0x1C150, size: 0x8, addend: 0x0, symName: __ZNSt3__112basic_stringIcNS_11char_traitsIcEENS_9allocatorIcEEE10__align_itB7v160006ILm16EEEmm, symObjAddr: 0x5D50, symBinAddr: 0x10000684C, symSize: 0x1C }
  - { offsetInCU: 0x1C17E, offset: 0x1C17E, size: 0x8, addend: 0x0, symName: __ZNSt3__19allocatorIcE8allocateB7v160006Em, symObjAddr: 0x5D6C, symBinAddr: 0x100006868, symSize: 0x84 }
  - { offsetInCU: 0x1C1B2, offset: 0x1C1B2, size: 0x8, addend: 0x0, symName: __ZNSt3__117__compressed_pairINS_12basic_stringIcNS_11char_traitsIcEENS_9allocatorIcEEE5__repES5_E6secondB7v160006Ev, symObjAddr: 0x5DF0, symBinAddr: 0x1000068EC, symSize: 0x24 }
  - { offsetInCU: 0x1C1D8, offset: 0x1C1D8, size: 0x8, addend: 0x0, symName: __ZNSt3__122__compressed_pair_elemINS_9allocatorIcEELi1ELb1EE5__getB7v160006Ev, symObjAddr: 0x5E14, symBinAddr: 0x100006910, symSize: 0x14 }
  - { offsetInCU: 0x1C1FE, offset: 0x1C1FE, size: 0x8, addend: 0x0, symName: __ZNKSt3__112basic_stringIcNS_11char_traitsIcEENS_9allocatorIcEEE9__is_longB7v160006Ev, symObjAddr: 0x5E28, symBinAddr: 0x100006924, symSize: 0x74 }
  - { offsetInCU: 0x1C224, offset: 0x1C224, size: 0x8, addend: 0x0, symName: __ZNSt3__112basic_stringIcNS_11char_traitsIcEENS_9allocatorIcEEE18__get_long_pointerB7v160006Ev, symObjAddr: 0x5E9C, symBinAddr: 0x100006998, symSize: 0x28 }
  - { offsetInCU: 0x1C24A, offset: 0x1C24A, size: 0x8, addend: 0x0, symName: __ZNSt3__112basic_stringIcNS_11char_traitsIcEENS_9allocatorIcEEE19__get_short_pointerB7v160006Ev, symObjAddr: 0x5EC4, symBinAddr: 0x1000069C0, symSize: 0x28 }
  - { offsetInCU: 0x1C270, offset: 0x1C270, size: 0x8, addend: 0x0, symName: __ZNKSt3__117__compressed_pairINS_12basic_stringIcNS_11char_traitsIcEENS_9allocatorIcEEE5__repES5_E5firstB7v160006Ev, symObjAddr: 0x5EEC, symBinAddr: 0x1000069E8, symSize: 0x24 }
  - { offsetInCU: 0x1C296, offset: 0x1C296, size: 0x8, addend: 0x0, symName: __ZNKSt3__122__compressed_pair_elemINS_12basic_stringIcNS_11char_traitsIcEENS_9allocatorIcEEE5__repELi0ELb0EE5__getB7v160006Ev, symObjAddr: 0x5F10, symBinAddr: 0x100006A0C, symSize: 0x14 }
  - { offsetInCU: 0x1C2BC, offset: 0x1C2BC, size: 0x8, addend: 0x0, symName: __ZNSt3__114pointer_traitsIPcE10pointer_toB7v160006ERc, symObjAddr: 0x5F24, symBinAddr: 0x100006A20, symSize: 0x14 }
  - { offsetInCU: 0x1C31B, offset: 0x1C31B, size: 0x8, addend: 0x0, symName: __ZNKSt3__114__copy_trivialclB7v160006IKccLi0EEENS_4pairIPT_PT0_EES5_S5_S7_, symObjAddr: 0x6168, symBinAddr: 0x100006C64, symSize: 0x48 }
  - { offsetInCU: 0x1C39F, offset: 0x1C39F, size: 0x8, addend: 0x0, symName: __ZNSt3__14pairIPKcS2_EC1B7v160006ERKS2_S5_, symObjAddr: 0x62E4, symBinAddr: 0x100006DE0, symSize: 0x3C }
  - { offsetInCU: 0x1C3E5, offset: 0x1C3E5, size: 0x8, addend: 0x0, symName: __ZNSt3__14pairIPKcS2_EC2B7v160006ERKS2_S5_, symObjAddr: 0x6320, symBinAddr: 0x100006E1C, symSize: 0x34 }
  - { offsetInCU: 0x1C42B, offset: 0x1C42B, size: 0x8, addend: 0x0, symName: __ZNSt3__118__unwrap_iter_implIPKcLb1EE8__unwrapB7v160006ES2_, symObjAddr: 0x6354, symBinAddr: 0x100006E50, symSize: 0x24 }
  - { offsetInCU: 0x1C44E, offset: 0x1C44E, size: 0x8, addend: 0x0, symName: __ZNSt3__14pairIPKcPcEC1B7v160006ERKS2_RKS3_, symObjAddr: 0x6440, symBinAddr: 0x100006F3C, symSize: 0x3C }
  - { offsetInCU: 0x1C494, offset: 0x1C494, size: 0x8, addend: 0x0, symName: __ZNSt3__14pairIPKcPcEC2B7v160006ERKS2_RKS3_, symObjAddr: 0x647C, symBinAddr: 0x100006F78, symSize: 0x34 }
  - { offsetInCU: 0x1C4DA, offset: 0x1C4DA, size: 0x8, addend: 0x0, symName: __ZNSt3__118__unwrap_iter_implIPcLb1EE8__unwrapB7v160006ES1_, symObjAddr: 0x64B0, symBinAddr: 0x100006FAC, symSize: 0x24 }
  - { offsetInCU: 0x1C4FD, offset: 0x1C4FD, size: 0x8, addend: 0x0, symName: __ZNSt3__118__unwrap_iter_implIPKcLb1EE8__rewrapB7v160006ES2_S2_, symObjAddr: 0x6524, symBinAddr: 0x100007020, symSize: 0x48 }
  - { offsetInCU: 0x1C52E, offset: 0x1C52E, size: 0x8, addend: 0x0, symName: __ZNSt3__118__unwrap_iter_implIPcLb1EE8__rewrapB7v160006ES1_S1_, symObjAddr: 0x656C, symBinAddr: 0x100007068, symSize: 0x48 }
  - { offsetInCU: 0x1C55F, offset: 0x1C55F, size: 0x8, addend: 0x0, symName: __ZNKSt3__112basic_stringIcNS_11char_traitsIcEENS_9allocatorIcEEE13__get_pointerB7v160006Ev, symObjAddr: 0x65B4, symBinAddr: 0x1000070B0, symSize: 0x54 }
  - { offsetInCU: 0x1C585, offset: 0x1C585, size: 0x8, addend: 0x0, symName: __ZNKSt3__112basic_stringIcNS_11char_traitsIcEENS_9allocatorIcEEE18__get_long_pointerB7v160006Ev, symObjAddr: 0x6608, symBinAddr: 0x100007104, symSize: 0x28 }
  - { offsetInCU: 0x1C5AB, offset: 0x1C5AB, size: 0x8, addend: 0x0, symName: __ZNKSt3__112basic_stringIcNS_11char_traitsIcEENS_9allocatorIcEEE19__get_short_pointerB7v160006Ev, symObjAddr: 0x6630, symBinAddr: 0x10000712C, symSize: 0x28 }
  - { offsetInCU: 0x1C5D1, offset: 0x1C5D1, size: 0x8, addend: 0x0, symName: __ZNSt3__114pointer_traitsIPKcE10pointer_toB7v160006ERS1_, symObjAddr: 0x6658, symBinAddr: 0x100007154, symSize: 0x14 }
  - { offsetInCU: 0x1C5F4, offset: 0x1C5F4, size: 0x8, addend: 0x0, symName: __ZNSt3__19basic_iosIcNS_11char_traitsIcEEEC2B7v160006Ev, symObjAddr: 0x6728, symBinAddr: 0x100007224, symSize: 0x44 }
  - { offsetInCU: 0x1C61E, offset: 0x1C61E, size: 0x8, addend: 0x0, symName: __ZNSt3__113basic_istreamIcNS_11char_traitsIcEEEC2B7v160006EPNS_15basic_streambufIcS2_EE, symObjAddr: 0x676C, symBinAddr: 0x100007268, symSize: 0x64 }
  - { offsetInCU: 0x1C663, offset: 0x1C663, size: 0x8, addend: 0x0, symName: __ZNSt3__113basic_filebufIcNS_11char_traitsIcEEE4openERKNS_12basic_stringIcS2_NS_9allocatorIcEEEEj, symObjAddr: 0x67D0, symBinAddr: 0x1000072CC, symSize: 0x44 }
  - { offsetInCU: 0x1C6A7, offset: 0x1C6A7, size: 0x8, addend: 0x0, symName: __ZNSt3__19basic_iosIcNS_11char_traitsIcEEE8setstateB7v160006Ej, symObjAddr: 0x6814, symBinAddr: 0x100007310, symSize: 0x2C }
  - { offsetInCU: 0x1C6DC, offset: 0x1C6DC, size: 0x8, addend: 0x0, symName: __ZNSt3__18ios_baseC2B7v160006Ev, symObjAddr: 0x6840, symBinAddr: 0x10000733C, symSize: 0x24 }
  - { offsetInCU: 0x1C706, offset: 0x1C706, size: 0x8, addend: 0x0, symName: __ZNSt3__19basic_iosIcNS_11char_traitsIcEEE4initB7v160006EPNS_15basic_streambufIcS2_EE, symObjAddr: 0x6864, symBinAddr: 0x100007360, symSize: 0x44 }
  - { offsetInCU: 0x1C73D, offset: 0x1C73D, size: 0x8, addend: 0x0, symName: __ZNSt3__111char_traitsIcE3eofEv, symObjAddr: 0x68A8, symBinAddr: 0x1000073A4, symSize: 0x8 }
  - { offsetInCU: 0x1C751, offset: 0x1C751, size: 0x8, addend: 0x0, symName: __ZNKSt3__112basic_stringIcNS_11char_traitsIcEENS_9allocatorIcEEE5c_strB7v160006Ev, symObjAddr: 0x68B0, symBinAddr: 0x1000073AC, symSize: 0x24 }
  - { offsetInCU: 0x1C777, offset: 0x1C777, size: 0x8, addend: 0x0, symName: __ZNSt3__18ios_base8setstateB7v160006Ej, symObjAddr: 0x68D4, symBinAddr: 0x1000073D0, symSize: 0x34 }
  - { offsetInCU: 0x1C7AE, offset: 0x1C7AE, size: 0x8, addend: 0x0, symName: __ZNKSt3__19basic_iosIcNS_11char_traitsIcEEE4failB7v160006Ev, symObjAddr: 0x6908, symBinAddr: 0x100007404, symSize: 0x28 }
  - { offsetInCU: 0x1C7D4, offset: 0x1C7D4, size: 0x8, addend: 0x0, symName: __ZNKSt3__18ios_base4failB7v160006Ev, symObjAddr: 0x6930, symBinAddr: 0x10000742C, symSize: 0x28 }
  - { offsetInCU: 0x1C81D, offset: 0x1C81D, size: 0x8, addend: 0x0, symName: __ZNKSt3__113basic_ostreamIcNS_11char_traitsIcEEE6sentrycvbB7v160006Ev, symObjAddr: 0x6B4C, symBinAddr: 0x100007648, symSize: 0x1C }
  - { offsetInCU: 0x1C843, offset: 0x1C843, size: 0x8, addend: 0x0, symName: __ZNSt3__119ostreambuf_iteratorIcNS_11char_traitsIcEEEC1B7v160006ERNS_13basic_ostreamIcS2_EE, symObjAddr: 0x6DB0, symBinAddr: 0x1000078AC, symSize: 0x34 }
  - { offsetInCU: 0x1C87B, offset: 0x1C87B, size: 0x8, addend: 0x0, symName: __ZNKSt3__18ios_base5flagsB7v160006Ev, symObjAddr: 0x6DE4, symBinAddr: 0x1000078E0, symSize: 0x18 }
  - { offsetInCU: 0x1C8A3, offset: 0x1C8A3, size: 0x8, addend: 0x0, symName: __ZNKSt3__19basic_iosIcNS_11char_traitsIcEEE4fillB7v160006Ev, symObjAddr: 0x6DFC, symBinAddr: 0x1000078F8, symSize: 0x64 }
  - { offsetInCU: 0x1C8CB, offset: 0x1C8CB, size: 0x8, addend: 0x0, symName: __ZNKSt3__119ostreambuf_iteratorIcNS_11char_traitsIcEEE6failedB7v160006Ev, symObjAddr: 0x6E60, symBinAddr: 0x10000795C, symSize: 0x24 }
  - { offsetInCU: 0x1C8F1, offset: 0x1C8F1, size: 0x8, addend: 0x0, symName: __ZNKSt3__18ios_base5widthB7v160006Ev, symObjAddr: 0x6E84, symBinAddr: 0x100007980, symSize: 0x18 }
  - { offsetInCU: 0x1C919, offset: 0x1C919, size: 0x8, addend: 0x0, symName: __ZNSt3__115basic_streambufIcNS_11char_traitsIcEEE5sputnB7v160006EPKcl, symObjAddr: 0x6E9C, symBinAddr: 0x100007998, symSize: 0x3C }
  - { offsetInCU: 0x1C95B, offset: 0x1C95B, size: 0x8, addend: 0x0, symName: __ZNSt3__18ios_base5widthB7v160006El, symObjAddr: 0x6ED8, symBinAddr: 0x1000079D4, symSize: 0x2C }
  - { offsetInCU: 0x1C9A1, offset: 0x1C9A1, size: 0x8, addend: 0x0, symName: __ZNSt3__119ostreambuf_iteratorIcNS_11char_traitsIcEEEC2B7v160006ERNS_13basic_ostreamIcS2_EE, symObjAddr: 0x6F04, symBinAddr: 0x100007A00, symSize: 0x68 }
  - { offsetInCU: 0x1C9D9, offset: 0x1C9D9, size: 0x8, addend: 0x0, symName: __ZNKSt3__19basic_iosIcNS_11char_traitsIcEEE5rdbufB7v160006Ev, symObjAddr: 0x6F6C, symBinAddr: 0x100007A68, symSize: 0x24 }
  - { offsetInCU: 0x1CA01, offset: 0x1CA01, size: 0x8, addend: 0x0, symName: __ZNKSt3__18ios_base5rdbufB7v160006Ev, symObjAddr: 0x6F90, symBinAddr: 0x100007A8C, symSize: 0x18 }
  - { offsetInCU: 0x1CA27, offset: 0x1CA27, size: 0x8, addend: 0x0, symName: __ZNSt3__111char_traitsIcE11eq_int_typeEii, symObjAddr: 0x6FA8, symBinAddr: 0x100007AA4, symSize: 0x28 }
  - { offsetInCU: 0x1CA58, offset: 0x1CA58, size: 0x8, addend: 0x0, symName: __ZNKSt3__19basic_iosIcNS_11char_traitsIcEEE5widenB7v160006Ec, symObjAddr: 0x6FD0, symBinAddr: 0x100007ACC, symSize: 0x8C }
  - { offsetInCU: 0x1CAC6, offset: 0x1CAC6, size: 0x8, addend: 0x0, symName: __ZNKSt3__15ctypeIcE5widenB7v160006Ec, symObjAddr: 0x7088, symBinAddr: 0x100007B84, symSize: 0x38 }
  - { offsetInCU: 0x1CAFB, offset: 0x1CAFB, size: 0x8, addend: 0x0, symName: __ZNSt3__112basic_stringIcNS_11char_traitsIcEENS_9allocatorIcEEEC2B7v160006Ev, symObjAddr: 0x70C0, symBinAddr: 0x100007BBC, symSize: 0x44 }
  - { offsetInCU: 0x1CB25, offset: 0x1CB25, size: 0x8, addend: 0x0, symName: __ZNSt3__117__compressed_pairINS_12basic_stringIcNS_11char_traitsIcEENS_9allocatorIcEEE5__repES5_EC1B7v160006INS_18__default_init_tagESA_EEOT_OT0_, symObjAddr: 0x7104, symBinAddr: 0x100007C00, symSize: 0x3C }
  - { offsetInCU: 0x1CB7D, offset: 0x1CB7D, size: 0x8, addend: 0x0, symName: __ZNSt3__112basic_stringIcNS_11char_traitsIcEENS_9allocatorIcEEE14__default_initB7v160006Ev, symObjAddr: 0x7140, symBinAddr: 0x100007C3C, symSize: 0xB0 }
  - { offsetInCU: 0x1CBCF, offset: 0x1CBCF, size: 0x8, addend: 0x0, symName: __ZNSt3__117__compressed_pairINS_12basic_stringIcNS_11char_traitsIcEENS_9allocatorIcEEE5__repES5_EC2B7v160006INS_18__default_init_tagESA_EEOT_OT0_, symObjAddr: 0x71F0, symBinAddr: 0x100007CEC, symSize: 0x3C }
  - { offsetInCU: 0x1CC27, offset: 0x1CC27, size: 0x8, addend: 0x0, symName: __ZNSt3__122__compressed_pair_elemINS_9allocatorIcEELi1ELb1EEC2B7v160006ENS_18__default_init_tagE, symObjAddr: 0x722C, symBinAddr: 0x100007D28, symSize: 0x2C }
  - { offsetInCU: 0x1CC5C, offset: 0x1CC5C, size: 0x8, addend: 0x0, symName: __ZNSt3__19allocatorIcEC2B7v160006Ev, symObjAddr: 0x7258, symBinAddr: 0x100007D54, symSize: 0x2C }
  - { offsetInCU: 0x1CC86, offset: 0x1CC86, size: 0x8, addend: 0x0, symName: __ZNSt3__116__non_trivial_ifILb1ENS_9allocatorIcEEEC2B7v160006Ev, symObjAddr: 0x7284, symBinAddr: 0x100007D80, symSize: 0x14 }
  - { offsetInCU: 0x1CCB0, offset: 0x1CCB0, size: 0x8, addend: 0x0, symName: __ZNSt3__113unordered_mapIciNS_4hashIcEENS_8equal_toIcEENS_9allocatorINS_4pairIKciEEEEEC2B7v160006Ev, symObjAddr: 0x7298, symBinAddr: 0x100007D94, symSize: 0x64 }
  - { offsetInCU: 0x1CCDA, offset: 0x1CCDA, size: 0x8, addend: 0x0, symName: __ZNSt3__112__hash_tableINS_17__hash_value_typeIciEENS_22__unordered_map_hasherIcS2_NS_4hashIcEENS_8equal_toIcEELb1EEENS_21__unordered_map_equalIcS2_S7_S5_Lb1EEENS_9allocatorIS2_EEEC1Ev, symObjAddr: 0x72FC, symBinAddr: 0x100007DF8, symSize: 0x2C }
  - { offsetInCU: 0x1CD06, offset: 0x1CD06, size: 0x8, addend: 0x0, symName: __ZNSt3__112__hash_tableINS_17__hash_value_typeIciEENS_22__unordered_map_hasherIcS2_NS_4hashIcEENS_8equal_toIcEELb1EEENS_21__unordered_map_equalIcS2_S7_S5_Lb1EEENS_9allocatorIS2_EEED1Ev, symObjAddr: 0x7338, symBinAddr: 0x100007E34, symSize: 0x2C }
  - { offsetInCU: 0x1CD32, offset: 0x1CD32, size: 0x8, addend: 0x0, symName: __ZNSt3__112__hash_tableINS_17__hash_value_typeIciEENS_22__unordered_map_hasherIcS2_NS_4hashIcEENS_8equal_toIcEELb1EEENS_21__unordered_map_equalIcS2_S7_S5_Lb1EEENS_9allocatorIS2_EEEC2Ev, symObjAddr: 0x7364, symBinAddr: 0x100007E60, symSize: 0xA4 }
  - { offsetInCU: 0x1CD5E, offset: 0x1CD5E, size: 0x8, addend: 0x0, symName: __ZNSt3__110unique_ptrIA_PNS_16__hash_node_baseIPNS_11__hash_nodeINS_17__hash_value_typeIciEEPvEEEENS_25__bucket_list_deallocatorINS_9allocatorIS9_EEEEEC1B7v160006ILb1EvEEv, symObjAddr: 0x7408, symBinAddr: 0x100007F04, symSize: 0x2C }
  - { offsetInCU: 0x1CD93, offset: 0x1CD93, size: 0x8, addend: 0x0, symName: __ZNSt3__117__compressed_pairINS_16__hash_node_baseIPNS_11__hash_nodeINS_17__hash_value_typeIciEEPvEEEENS_9allocatorIS6_EEEC1B7v160006ILb1EvEEv, symObjAddr: 0x7434, symBinAddr: 0x100007F30, symSize: 0x2C }
  - { offsetInCU: 0x1CDCE, offset: 0x1CDCE, size: 0x8, addend: 0x0, symName: __ZNSt3__117__compressed_pairImNS_22__unordered_map_hasherIcNS_17__hash_value_typeIciEENS_4hashIcEENS_8equal_toIcEELb1EEEEC1B7v160006IiNS_18__default_init_tagEEEOT_OT0_, symObjAddr: 0x7460, symBinAddr: 0x100007F5C, symSize: 0x3C }
  - { offsetInCU: 0x1CE2C, offset: 0x1CE2C, size: 0x8, addend: 0x0, symName: __ZNSt3__117__compressed_pairIfNS_21__unordered_map_equalIcNS_17__hash_value_typeIciEENS_8equal_toIcEENS_4hashIcEELb1EEEEC1B7v160006IfNS_18__default_init_tagEEEOT_OT0_, symObjAddr: 0x749C, symBinAddr: 0x100007F98, symSize: 0x3C }
  - { offsetInCU: 0x1CE84, offset: 0x1CE84, size: 0x8, addend: 0x0, symName: __ZNSt3__110unique_ptrIA_PNS_16__hash_node_baseIPNS_11__hash_nodeINS_17__hash_value_typeIciEEPvEEEENS_25__bucket_list_deallocatorINS_9allocatorIS9_EEEEED1B7v160006Ev, symObjAddr: 0x74D8, symBinAddr: 0x100007FD4, symSize: 0x2C }
  - { offsetInCU: 0x1CEAE, offset: 0x1CEAE, size: 0x8, addend: 0x0, symName: __ZNSt3__110unique_ptrIA_PNS_16__hash_node_baseIPNS_11__hash_nodeINS_17__hash_value_typeIciEEPvEEEENS_25__bucket_list_deallocatorINS_9allocatorIS9_EEEEEC2B7v160006ILb1EvEEv, symObjAddr: 0x7504, symBinAddr: 0x100008000, symSize: 0x50 }
  - { offsetInCU: 0x1CEE9, offset: 0x1CEE9, size: 0x8, addend: 0x0, symName: __ZNSt3__117__compressed_pairIPPNS_16__hash_node_baseIPNS_11__hash_nodeINS_17__hash_value_typeIciEEPvEEEENS_25__bucket_list_deallocatorINS_9allocatorIS9_EEEEEC1B7v160006INS_16__value_init_tagESH_EEOT_OT0_, symObjAddr: 0x7554, symBinAddr: 0x100008050, symSize: 0x3C }
  - { offsetInCU: 0x1CF41, offset: 0x1CF41, size: 0x8, addend: 0x0, symName: __ZNSt3__117__compressed_pairIPPNS_16__hash_node_baseIPNS_11__hash_nodeINS_17__hash_value_typeIciEEPvEEEENS_25__bucket_list_deallocatorINS_9allocatorIS9_EEEEEC2B7v160006INS_16__value_init_tagESH_EEOT_OT0_, symObjAddr: 0x7590, symBinAddr: 0x10000808C, symSize: 0x40 }
  - { offsetInCU: 0x1CF99, offset: 0x1CF99, size: 0x8, addend: 0x0, symName: __ZNSt3__122__compressed_pair_elemIPPNS_16__hash_node_baseIPNS_11__hash_nodeINS_17__hash_value_typeIciEEPvEEEELi0ELb0EEC2B7v160006ENS_16__value_init_tagE, symObjAddr: 0x75D0, symBinAddr: 0x1000080CC, symSize: 0x18 }
  - { offsetInCU: 0x1CFCE, offset: 0x1CFCE, size: 0x8, addend: 0x0, symName: __ZNSt3__122__compressed_pair_elemINS_25__bucket_list_deallocatorINS_9allocatorIPNS_16__hash_node_baseIPNS_11__hash_nodeINS_17__hash_value_typeIciEEPvEEEEEEEELi1ELb0EEC2B7v160006ENS_16__value_init_tagE, symObjAddr: 0x75E8, symBinAddr: 0x1000080E4, symSize: 0x2C }
  - { offsetInCU: 0x1D003, offset: 0x1D003, size: 0x8, addend: 0x0, symName: __ZNSt3__125__bucket_list_deallocatorINS_9allocatorIPNS_16__hash_node_baseIPNS_11__hash_nodeINS_17__hash_value_typeIciEEPvEEEEEEEC1B7v160006Ev, symObjAddr: 0x7614, symBinAddr: 0x100008110, symSize: 0x2C }
  - { offsetInCU: 0x1D02D, offset: 0x1D02D, size: 0x8, addend: 0x0, symName: __ZNSt3__125__bucket_list_deallocatorINS_9allocatorIPNS_16__hash_node_baseIPNS_11__hash_nodeINS_17__hash_value_typeIciEEPvEEEEEEEC2B7v160006Ev, symObjAddr: 0x7640, symBinAddr: 0x10000813C, symSize: 0x38 }
  - { offsetInCU: 0x1D057, offset: 0x1D057, size: 0x8, addend: 0x0, symName: __ZNSt3__117__compressed_pairImNS_9allocatorIPNS_16__hash_node_baseIPNS_11__hash_nodeINS_17__hash_value_typeIciEEPvEEEEEEEC1B7v160006IiNS_18__default_init_tagEEEOT_OT0_, symObjAddr: 0x7678, symBinAddr: 0x100008174, symSize: 0x3C }
  - { offsetInCU: 0x1D0AF, offset: 0x1D0AF, size: 0x8, addend: 0x0, symName: __ZNSt3__117__compressed_pairImNS_9allocatorIPNS_16__hash_node_baseIPNS_11__hash_nodeINS_17__hash_value_typeIciEEPvEEEEEEEC2B7v160006IiNS_18__default_init_tagEEEOT_OT0_, symObjAddr: 0x76B4, symBinAddr: 0x1000081B0, symSize: 0x40 }
  - { offsetInCU: 0x1D107, offset: 0x1D107, size: 0x8, addend: 0x0, symName: __ZNSt3__122__compressed_pair_elemImLi0ELb0EEC2B7v160006IivEEOT_, symObjAddr: 0x76F4, symBinAddr: 0x1000081F0, symSize: 0x24 }
  - { offsetInCU: 0x1D149, offset: 0x1D149, size: 0x8, addend: 0x0, symName: __ZNSt3__122__compressed_pair_elemINS_9allocatorIPNS_16__hash_node_baseIPNS_11__hash_nodeINS_17__hash_value_typeIciEEPvEEEEEELi1ELb1EEC2B7v160006ENS_18__default_init_tagE, symObjAddr: 0x7718, symBinAddr: 0x100008214, symSize: 0x2C }
  - { offsetInCU: 0x1D17E, offset: 0x1D17E, size: 0x8, addend: 0x0, symName: __ZNSt3__19allocatorIPNS_16__hash_node_baseIPNS_11__hash_nodeINS_17__hash_value_typeIciEEPvEEEEEC2B7v160006Ev, symObjAddr: 0x7744, symBinAddr: 0x100008240, symSize: 0x2C }
  - { offsetInCU: 0x1D1A8, offset: 0x1D1A8, size: 0x8, addend: 0x0, symName: __ZNSt3__116__non_trivial_ifILb1ENS_9allocatorIPNS_16__hash_node_baseIPNS_11__hash_nodeINS_17__hash_value_typeIciEEPvEEEEEEEC2B7v160006Ev, symObjAddr: 0x7770, symBinAddr: 0x10000826C, symSize: 0x14 }
  - { offsetInCU: 0x1D1D2, offset: 0x1D1D2, size: 0x8, addend: 0x0, symName: __ZNSt3__117__compressed_pairINS_16__hash_node_baseIPNS_11__hash_nodeINS_17__hash_value_typeIciEEPvEEEENS_9allocatorIS6_EEEC2B7v160006ILb1EvEEv, symObjAddr: 0x7784, symBinAddr: 0x100008280, symSize: 0x34 }
  - { offsetInCU: 0x1D207, offset: 0x1D207, size: 0x8, addend: 0x0, symName: __ZNSt3__122__compressed_pair_elemINS_16__hash_node_baseIPNS_11__hash_nodeINS_17__hash_value_typeIciEEPvEEEELi0ELb0EEC2B7v160006ENS_16__value_init_tagE, symObjAddr: 0x77B8, symBinAddr: 0x1000082B4, symSize: 0x2C }
  - { offsetInCU: 0x1D23C, offset: 0x1D23C, size: 0x8, addend: 0x0, symName: __ZNSt3__122__compressed_pair_elemINS_9allocatorINS_11__hash_nodeINS_17__hash_value_typeIciEEPvEEEELi1ELb1EEC2B7v160006ENS_16__value_init_tagE, symObjAddr: 0x77E4, symBinAddr: 0x1000082E0, symSize: 0x2C }
  - { offsetInCU: 0x1D271, offset: 0x1D271, size: 0x8, addend: 0x0, symName: __ZNSt3__116__hash_node_baseIPNS_11__hash_nodeINS_17__hash_value_typeIciEEPvEEEC1B7v160006Ev, symObjAddr: 0x7810, symBinAddr: 0x10000830C, symSize: 0x2C }
  - { offsetInCU: 0x1D29B, offset: 0x1D29B, size: 0x8, addend: 0x0, symName: __ZNSt3__116__hash_node_baseIPNS_11__hash_nodeINS_17__hash_value_typeIciEEPvEEEC2B7v160006Ev, symObjAddr: 0x783C, symBinAddr: 0x100008338, symSize: 0x18 }
  - { offsetInCU: 0x1D2C5, offset: 0x1D2C5, size: 0x8, addend: 0x0, symName: __ZNSt3__19allocatorINS_11__hash_nodeINS_17__hash_value_typeIciEEPvEEEC2B7v160006Ev, symObjAddr: 0x7854, symBinAddr: 0x100008350, symSize: 0x2C }
  - { offsetInCU: 0x1D2EF, offset: 0x1D2EF, size: 0x8, addend: 0x0, symName: __ZNSt3__116__non_trivial_ifILb1ENS_9allocatorINS_11__hash_nodeINS_17__hash_value_typeIciEEPvEEEEEC2B7v160006Ev, symObjAddr: 0x7880, symBinAddr: 0x10000837C, symSize: 0x14 }
  - { offsetInCU: 0x1D319, offset: 0x1D319, size: 0x8, addend: 0x0, symName: __ZNSt3__117__compressed_pairImNS_22__unordered_map_hasherIcNS_17__hash_value_typeIciEENS_4hashIcEENS_8equal_toIcEELb1EEEEC2B7v160006IiNS_18__default_init_tagEEEOT_OT0_, symObjAddr: 0x7894, symBinAddr: 0x100008390, symSize: 0x40 }
  - { offsetInCU: 0x1D371, offset: 0x1D371, size: 0x8, addend: 0x0, symName: __ZNSt3__122__compressed_pair_elemINS_22__unordered_map_hasherIcNS_17__hash_value_typeIciEENS_4hashIcEENS_8equal_toIcEELb1EEELi1ELb1EEC2B7v160006ENS_18__default_init_tagE, symObjAddr: 0x78D4, symBinAddr: 0x1000083D0, symSize: 0x2C }
  - { offsetInCU: 0x1D3A6, offset: 0x1D3A6, size: 0x8, addend: 0x0, symName: __ZNSt3__122__unordered_map_hasherIcNS_17__hash_value_typeIciEENS_4hashIcEENS_8equal_toIcEELb1EEC2B7v160006Ev, symObjAddr: 0x7900, symBinAddr: 0x1000083FC, symSize: 0x14 }
  - { offsetInCU: 0x1D3D0, offset: 0x1D3D0, size: 0x8, addend: 0x0, symName: __ZNSt3__117__compressed_pairIfNS_21__unordered_map_equalIcNS_17__hash_value_typeIciEENS_8equal_toIcEENS_4hashIcEELb1EEEEC2B7v160006IfNS_18__default_init_tagEEEOT_OT0_, symObjAddr: 0x7914, symBinAddr: 0x100008410, symSize: 0x40 }
  - { offsetInCU: 0x1D428, offset: 0x1D428, size: 0x8, addend: 0x0, symName: __ZNSt3__122__compressed_pair_elemIfLi0ELb0EEC2B7v160006IfvEEOT_, symObjAddr: 0x7954, symBinAddr: 0x100008450, symSize: 0x24 }
  - { offsetInCU: 0x1D46A, offset: 0x1D46A, size: 0x8, addend: 0x0, symName: __ZNSt3__122__compressed_pair_elemINS_21__unordered_map_equalIcNS_17__hash_value_typeIciEENS_8equal_toIcEENS_4hashIcEELb1EEELi1ELb1EEC2B7v160006ENS_18__default_init_tagE, symObjAddr: 0x7978, symBinAddr: 0x100008474, symSize: 0x2C }
  - { offsetInCU: 0x1D49F, offset: 0x1D49F, size: 0x8, addend: 0x0, symName: __ZNSt3__121__unordered_map_equalIcNS_17__hash_value_typeIciEENS_8equal_toIcEENS_4hashIcEELb1EEC2B7v160006Ev, symObjAddr: 0x79A4, symBinAddr: 0x1000084A0, symSize: 0x14 }
  - { offsetInCU: 0x1D4C9, offset: 0x1D4C9, size: 0x8, addend: 0x0, symName: __ZNSt3__110unique_ptrIA_PNS_16__hash_node_baseIPNS_11__hash_nodeINS_17__hash_value_typeIciEEPvEEEENS_25__bucket_list_deallocatorINS_9allocatorIS9_EEEEED2B7v160006Ev, symObjAddr: 0x79B8, symBinAddr: 0x1000084B4, symSize: 0x30 }
  - { offsetInCU: 0x1D4F3, offset: 0x1D4F3, size: 0x8, addend: 0x0, symName: __ZNSt3__110unique_ptrIA_PNS_16__hash_node_baseIPNS_11__hash_nodeINS_17__hash_value_typeIciEEPvEEEENS_25__bucket_list_deallocatorINS_9allocatorIS9_EEEEE5resetB7v160006EDn, symObjAddr: 0x79E8, symBinAddr: 0x1000084E4, symSize: 0x6C }
  - { offsetInCU: 0x1D533, offset: 0x1D533, size: 0x8, addend: 0x0, symName: __ZNSt3__117__compressed_pairIPPNS_16__hash_node_baseIPNS_11__hash_nodeINS_17__hash_value_typeIciEEPvEEEENS_25__bucket_list_deallocatorINS_9allocatorIS9_EEEEE5firstB7v160006Ev, symObjAddr: 0x7A54, symBinAddr: 0x100008550, symSize: 0x24 }
  - { offsetInCU: 0x1D559, offset: 0x1D559, size: 0x8, addend: 0x0, symName: __ZNSt3__117__compressed_pairIPPNS_16__hash_node_baseIPNS_11__hash_nodeINS_17__hash_value_typeIciEEPvEEEENS_25__bucket_list_deallocatorINS_9allocatorIS9_EEEEE6secondB7v160006Ev, symObjAddr: 0x7A78, symBinAddr: 0x100008574, symSize: 0x28 }
  - { offsetInCU: 0x1D57F, offset: 0x1D57F, size: 0x8, addend: 0x0, symName: __ZNSt3__125__bucket_list_deallocatorINS_9allocatorIPNS_16__hash_node_baseIPNS_11__hash_nodeINS_17__hash_value_typeIciEEPvEEEEEEEclB7v160006EPSA_, symObjAddr: 0x7AA0, symBinAddr: 0x10000859C, symSize: 0x58 }
  - { offsetInCU: 0x1D5B4, offset: 0x1D5B4, size: 0x8, addend: 0x0, symName: __ZNSt3__122__compressed_pair_elemIPPNS_16__hash_node_baseIPNS_11__hash_nodeINS_17__hash_value_typeIciEEPvEEEELi0ELb0EE5__getB7v160006Ev, symObjAddr: 0x7AF8, symBinAddr: 0x1000085F4, symSize: 0x14 }
  - { offsetInCU: 0x1D5DA, offset: 0x1D5DA, size: 0x8, addend: 0x0, symName: __ZNSt3__122__compressed_pair_elemINS_25__bucket_list_deallocatorINS_9allocatorIPNS_16__hash_node_baseIPNS_11__hash_nodeINS_17__hash_value_typeIciEEPvEEEEEEEELi1ELb0EE5__getB7v160006Ev, symObjAddr: 0x7B0C, symBinAddr: 0x100008608, symSize: 0x14 }
  - { offsetInCU: 0x1D600, offset: 0x1D600, size: 0x8, addend: 0x0, symName: __ZNSt3__116allocator_traitsINS_9allocatorIPNS_16__hash_node_baseIPNS_11__hash_nodeINS_17__hash_value_typeIciEEPvEEEEEEE10deallocateB7v160006ERSB_PSA_m, symObjAddr: 0x7B20, symBinAddr: 0x10000861C, symSize: 0x34 }
  - { offsetInCU: 0x1D642, offset: 0x1D642, size: 0x8, addend: 0x0, symName: __ZNSt3__125__bucket_list_deallocatorINS_9allocatorIPNS_16__hash_node_baseIPNS_11__hash_nodeINS_17__hash_value_typeIciEEPvEEEEEEE7__allocB7v160006Ev, symObjAddr: 0x7B54, symBinAddr: 0x100008650, symSize: 0x24 }
  - { offsetInCU: 0x1D668, offset: 0x1D668, size: 0x8, addend: 0x0, symName: __ZNSt3__125__bucket_list_deallocatorINS_9allocatorIPNS_16__hash_node_baseIPNS_11__hash_nodeINS_17__hash_value_typeIciEEPvEEEEEEE4sizeB7v160006Ev, symObjAddr: 0x7B78, symBinAddr: 0x100008674, symSize: 0x24 }
  - { offsetInCU: 0x1D68E, offset: 0x1D68E, size: 0x8, addend: 0x0, symName: __ZNSt3__19allocatorIPNS_16__hash_node_baseIPNS_11__hash_nodeINS_17__hash_value_typeIciEEPvEEEEE10deallocateB7v160006EPS9_m, symObjAddr: 0x7B9C, symBinAddr: 0x100008698, symSize: 0x70 }
  - { offsetInCU: 0x1D6D0, offset: 0x1D6D0, size: 0x8, addend: 0x0, symName: __ZNSt3__117__compressed_pairImNS_9allocatorIPNS_16__hash_node_baseIPNS_11__hash_nodeINS_17__hash_value_typeIciEEPvEEEEEEE6secondB7v160006Ev, symObjAddr: 0x7C0C, symBinAddr: 0x100008708, symSize: 0x24 }
  - { offsetInCU: 0x1D6F6, offset: 0x1D6F6, size: 0x8, addend: 0x0, symName: __ZNSt3__122__compressed_pair_elemINS_9allocatorIPNS_16__hash_node_baseIPNS_11__hash_nodeINS_17__hash_value_typeIciEEPvEEEEEELi1ELb1EE5__getB7v160006Ev, symObjAddr: 0x7C30, symBinAddr: 0x10000872C, symSize: 0x14 }
  - { offsetInCU: 0x1D71C, offset: 0x1D71C, size: 0x8, addend: 0x0, symName: __ZNSt3__117__compressed_pairImNS_9allocatorIPNS_16__hash_node_baseIPNS_11__hash_nodeINS_17__hash_value_typeIciEEPvEEEEEEE5firstB7v160006Ev, symObjAddr: 0x7C44, symBinAddr: 0x100008740, symSize: 0x24 }
  - { offsetInCU: 0x1D742, offset: 0x1D742, size: 0x8, addend: 0x0, symName: __ZNSt3__112__hash_tableINS_17__hash_value_typeIciEENS_22__unordered_map_hasherIcS2_NS_4hashIcEENS_8equal_toIcEELb1EEENS_21__unordered_map_equalIcS2_S7_S5_Lb1EEENS_9allocatorIS2_EEED2Ev, symObjAddr: 0x7C68, symBinAddr: 0x100008764, symSize: 0x80 }
  - { offsetInCU: 0x1D76E, offset: 0x1D76E, size: 0x8, addend: 0x0, symName: __ZNSt3__112__hash_tableINS_17__hash_value_typeIciEENS_22__unordered_map_hasherIcS2_NS_4hashIcEENS_8equal_toIcEELb1EEENS_21__unordered_map_equalIcS2_S7_S5_Lb1EEENS_9allocatorIS2_EEE17__deallocate_nodeEPNS_16__hash_node_baseIPNS_11__hash_nodeIS2_PvEEEE, symObjAddr: 0x7CE8, symBinAddr: 0x1000087E4, symSize: 0xBC }
  - { offsetInCU: 0x1D7D8, offset: 0x1D7D8, size: 0x8, addend: 0x0, symName: __ZNSt3__117__compressed_pairINS_16__hash_node_baseIPNS_11__hash_nodeINS_17__hash_value_typeIciEEPvEEEENS_9allocatorIS6_EEE5firstB7v160006Ev, symObjAddr: 0x7DA4, symBinAddr: 0x1000088A0, symSize: 0x24 }
  - { offsetInCU: 0x1D7FE, offset: 0x1D7FE, size: 0x8, addend: 0x0, symName: __ZNSt3__112__hash_tableINS_17__hash_value_typeIciEENS_22__unordered_map_hasherIcS2_NS_4hashIcEENS_8equal_toIcEELb1EEENS_21__unordered_map_equalIcS2_S7_S5_Lb1EEENS_9allocatorIS2_EEE12__node_allocB7v160006Ev, symObjAddr: 0x7DD8, symBinAddr: 0x1000088D4, symSize: 0x28 }
  - { offsetInCU: 0x1D824, offset: 0x1D824, size: 0x8, addend: 0x0, symName: __ZNSt3__116__hash_node_baseIPNS_11__hash_nodeINS_17__hash_value_typeIciEEPvEEE8__upcastB7v160006Ev, symObjAddr: 0x7E00, symBinAddr: 0x1000088FC, symSize: 0x24 }
  - { offsetInCU: 0x1D84A, offset: 0x1D84A, size: 0x8, addend: 0x0, symName: __ZNSt3__116allocator_traitsINS_9allocatorINS_11__hash_nodeINS_17__hash_value_typeIciEEPvEEEEE7destroyB7v160006INS_4pairIKciEEvvEEvRS7_PT_, symObjAddr: 0x7E24, symBinAddr: 0x100008920, symSize: 0x14 }
  - { offsetInCU: 0x1D884, offset: 0x1D884, size: 0x8, addend: 0x0, symName: __ZNSt3__122__hash_key_value_typesINS_17__hash_value_typeIciEEE9__get_ptrB7v160006ERS2_, symObjAddr: 0x7E38, symBinAddr: 0x100008934, symSize: 0x24 }
  - { offsetInCU: 0x1D8A7, offset: 0x1D8A7, size: 0x8, addend: 0x0, symName: __ZNSt3__116allocator_traitsINS_9allocatorINS_11__hash_nodeINS_17__hash_value_typeIciEEPvEEEEE10deallocateB7v160006ERS7_PS6_m, symObjAddr: 0x7E5C, symBinAddr: 0x100008958, symSize: 0x34 }
  - { offsetInCU: 0x1D8E9, offset: 0x1D8E9, size: 0x8, addend: 0x0, symName: __ZNSt3__117__compressed_pairINS_16__hash_node_baseIPNS_11__hash_nodeINS_17__hash_value_typeIciEEPvEEEENS_9allocatorIS6_EEE6secondB7v160006Ev, symObjAddr: 0x7E90, symBinAddr: 0x10000898C, symSize: 0x24 }
  - { offsetInCU: 0x1D90F, offset: 0x1D90F, size: 0x8, addend: 0x0, symName: __ZNSt3__122__compressed_pair_elemINS_9allocatorINS_11__hash_nodeINS_17__hash_value_typeIciEEPvEEEELi1ELb1EE5__getB7v160006Ev, symObjAddr: 0x7EB4, symBinAddr: 0x1000089B0, symSize: 0x14 }
  - { offsetInCU: 0x1D935, offset: 0x1D935, size: 0x8, addend: 0x0, symName: __ZNSt3__114pointer_traitsIPNS_16__hash_node_baseIPNS_11__hash_nodeINS_17__hash_value_typeIciEEPvEEEEE10pointer_toB7v160006ERS8_, symObjAddr: 0x7EC8, symBinAddr: 0x1000089C4, symSize: 0x14 }
  - { offsetInCU: 0x1D958, offset: 0x1D958, size: 0x8, addend: 0x0, symName: __ZNSt3__117__hash_value_typeIciE11__get_valueB7v160006Ev, symObjAddr: 0x7EDC, symBinAddr: 0x1000089D8, symSize: 0x14 }
  - { offsetInCU: 0x1D97E, offset: 0x1D97E, size: 0x8, addend: 0x0, symName: __ZNSt3__19allocatorINS_11__hash_nodeINS_17__hash_value_typeIciEEPvEEE10deallocateB7v160006EPS5_m, symObjAddr: 0x7EF0, symBinAddr: 0x1000089EC, symSize: 0x74 }
  - { offsetInCU: 0x1D9C0, offset: 0x1D9C0, size: 0x8, addend: 0x0, symName: __ZNSt3__122__compressed_pair_elemINS_16__hash_node_baseIPNS_11__hash_nodeINS_17__hash_value_typeIciEEPvEEEELi0ELb0EE5__getB7v160006Ev, symObjAddr: 0x7F64, symBinAddr: 0x100008A60, symSize: 0x14 }
  - { offsetInCU: 0x1D9E6, offset: 0x1D9E6, size: 0x8, addend: 0x0, symName: __ZNSt3__113unordered_mapIciNS_4hashIcEENS_8equal_toIcEENS_9allocatorINS_4pairIKciEEEEED2B7v160006Ev, symObjAddr: 0x7F78, symBinAddr: 0x100008A74, symSize: 0x2C }
  - { offsetInCU: 0x1DA10, offset: 0x1DA10, size: 0x8, addend: 0x0, symName: __ZNSt3__112basic_stringIcNS_11char_traitsIcEENS_9allocatorIcEEEC2B7v160006IDnEEPKc, symObjAddr: 0x7FA4, symBinAddr: 0x100008AA0, symSize: 0x60 }
  - { offsetInCU: 0x1DA6F, offset: 0x1DA6F, size: 0x8, addend: 0x0, symName: __ZNKSt3__113basic_istreamIcNS_11char_traitsIcEEE6sentrycvbB7v160006Ev, symObjAddr: 0x823C, symBinAddr: 0x100008D38, symSize: 0x1C }
  - { offsetInCU: 0x1DA95, offset: 0x1DA95, size: 0x8, addend: 0x0, symName: __ZNSt3__112basic_stringIcNS_11char_traitsIcEENS_9allocatorIcEEE5clearB7v160006Ev, symObjAddr: 0x8258, symBinAddr: 0x100008D54, symSize: 0x9C }
  - { offsetInCU: 0x1DABD, offset: 0x1DABD, size: 0x8, addend: 0x0, symName: __ZNSt3__115basic_streambufIcNS_11char_traitsIcEEE6sbumpcB7v160006Ev, symObjAddr: 0x82F4, symBinAddr: 0x100008DF0, symSize: 0x78 }
  - { offsetInCU: 0x1DAE3, offset: 0x1DAE3, size: 0x8, addend: 0x0, symName: __ZNSt3__111char_traitsIcE12to_char_typeEi, symObjAddr: 0x836C, symBinAddr: 0x100008E68, symSize: 0x18 }
  - { offsetInCU: 0x1DB06, offset: 0x1DB06, size: 0x8, addend: 0x0, symName: __ZNSt3__111char_traitsIcE2eqEcc, symObjAddr: 0x8384, symBinAddr: 0x100008E80, symSize: 0x28 }
  - { offsetInCU: 0x1DB37, offset: 0x1DB37, size: 0x8, addend: 0x0, symName: __ZNSt3__18ios_base18__setstate_nothrowB7v160006Ej, symObjAddr: 0x83AC, symBinAddr: 0x100008EA8, symSize: 0x64 }
  - { offsetInCU: 0x1DB6C, offset: 0x1DB6C, size: 0x8, addend: 0x0, symName: __ZNKSt3__19basic_iosIcNS_11char_traitsIcEEE10exceptionsB7v160006Ev, symObjAddr: 0x8410, symBinAddr: 0x100008F0C, symSize: 0x24 }
  - { offsetInCU: 0x1DB92, offset: 0x1DB92, size: 0x8, addend: 0x0, symName: __ZNSt3__111char_traitsIcE6assignERcRKc, symObjAddr: 0x8444, symBinAddr: 0x100008F40, symSize: 0x24 }
  - { offsetInCU: 0x1DBC3, offset: 0x1DBC3, size: 0x8, addend: 0x0, symName: __ZNSt3__111char_traitsIcE11to_int_typeEc, symObjAddr: 0x8468, symBinAddr: 0x100008F64, symSize: 0x14 }
  - { offsetInCU: 0x1DBE6, offset: 0x1DBE6, size: 0x8, addend: 0x0, symName: __ZNKSt3__18ios_base10exceptionsB7v160006Ev, symObjAddr: 0x847C, symBinAddr: 0x100008F78, symSize: 0x18 }
  - { offsetInCU: 0x1DC0E, offset: 0x1DC0E, size: 0x8, addend: 0x0, symName: __ZNSt3__112basic_stringIcNS_11char_traitsIcEENS_9allocatorIcEEE6appendB7v160006ERKS5_, symObjAddr: 0x8494, symBinAddr: 0x100008F90, symSize: 0x4C }
  - { offsetInCU: 0x1DC43, offset: 0x1DC43, size: 0x8, addend: 0x0, symName: __ZNSt3__112basic_stringIcNS_11char_traitsIcEENS_9allocatorIcEEE15__make_iteratorB7v160006EPc, symObjAddr: 0x84E0, symBinAddr: 0x100008FDC, symSize: 0x34 }
  - { offsetInCU: 0x1DC78, offset: 0x1DC78, size: 0x8, addend: 0x0, symName: __ZNSt3__111__wrap_iterIPcEC1B7v160006EPKvS1_, symObjAddr: 0x8514, symBinAddr: 0x100009010, symSize: 0x3C }
  - { offsetInCU: 0x1DCBE, offset: 0x1DCBE, size: 0x8, addend: 0x0, symName: __ZNSt3__111__wrap_iterIPcEC2B7v160006EPKvS1_, symObjAddr: 0x8550, symBinAddr: 0x10000904C, symSize: 0x24 }
  - { offsetInCU: 0x1DD04, offset: 0x1DD04, size: 0x8, addend: 0x0, symName: __ZNKSt3__111__wrap_iterIPcE4baseB7v160006Ev, symObjAddr: 0x85BC, symBinAddr: 0x1000090B8, symSize: 0x18 }
  - { offsetInCU: 0x1DD2A, offset: 0x1DD2A, size: 0x8, addend: 0x0, symName: __ZNSt3__113unordered_mapIciNS_4hashIcEENS_8equal_toIcEENS_9allocatorINS_4pairIKciEEEEE4findB7v160006ERS7_, symObjAddr: 0x85D4, symBinAddr: 0x1000090D0, symSize: 0x40 }
  - { offsetInCU: 0x1DD5F, offset: 0x1DD5F, size: 0x8, addend: 0x0, symName: __ZNKSt3__119__hash_map_iteratorINS_15__hash_iteratorIPNS_11__hash_nodeINS_17__hash_value_typeIciEEPvEEEEEptB7v160006Ev, symObjAddr: 0x8614, symBinAddr: 0x100009110, symSize: 0x2C }
  - { offsetInCU: 0x1DD85, offset: 0x1DD85, size: 0x8, addend: 0x0, symName: __ZNSt3__113unordered_mapIciNS_4hashIcEENS_8equal_toIcEENS_9allocatorINS_4pairIKciEEEEE25__construct_node_with_keyERS7_, symObjAddr: 0x8640, symBinAddr: 0x10000913C, symSize: 0x144 }
  - { offsetInCU: 0x1DDDB, offset: 0x1DDDB, size: 0x8, addend: 0x0, symName: __ZNSt3__112__hash_tableINS_17__hash_value_typeIciEENS_22__unordered_map_hasherIcS2_NS_4hashIcEENS_8equal_toIcEELb1EEENS_21__unordered_map_equalIcS2_S7_S5_Lb1EEENS_9allocatorIS2_EEE20__node_insert_uniqueEPNS_11__hash_nodeIS2_PvEE, symObjAddr: 0x8784, symBinAddr: 0x100009280, symSize: 0xC8 }
  - { offsetInCU: 0x1DE30, offset: 0x1DE30, size: 0x8, addend: 0x0, symName: __ZNKSt3__110unique_ptrINS_11__hash_nodeINS_17__hash_value_typeIciEEPvEENS_26__hash_map_node_destructorINS_9allocatorIS5_EEEEE3getB7v160006Ev, symObjAddr: 0x884C, symBinAddr: 0x100009348, symSize: 0x28 }
  - { offsetInCU: 0x1DE56, offset: 0x1DE56, size: 0x8, addend: 0x0, symName: __ZNSt3__14pairINS_19__hash_map_iteratorINS_15__hash_iteratorIPNS_11__hash_nodeINS_17__hash_value_typeIciEEPvEEEEEEbEC1B7v160006IS9_bEERKNS0_IT_T0_EE, symObjAddr: 0x8874, symBinAddr: 0x100009370, symSize: 0x34 }
  - { offsetInCU: 0x1DEA0, offset: 0x1DEA0, size: 0x8, addend: 0x0, symName: __ZNSt3__110unique_ptrINS_11__hash_nodeINS_17__hash_value_typeIciEEPvEENS_26__hash_map_node_destructorINS_9allocatorIS5_EEEEE7releaseB7v160006Ev, symObjAddr: 0x88A8, symBinAddr: 0x1000093A4, symSize: 0x44 }
  - { offsetInCU: 0x1DED5, offset: 0x1DED5, size: 0x8, addend: 0x0, symName: __ZNSt3__110unique_ptrINS_11__hash_nodeINS_17__hash_value_typeIciEEPvEENS_26__hash_map_node_destructorINS_9allocatorIS5_EEEEED1B7v160006Ev, symObjAddr: 0x88EC, symBinAddr: 0x1000093E8, symSize: 0x2C }
  - { offsetInCU: 0x1DEFF, offset: 0x1DEFF, size: 0x8, addend: 0x0, symName: __ZNSt3__112__hash_tableINS_17__hash_value_typeIciEENS_22__unordered_map_hasherIcS2_NS_4hashIcEENS_8equal_toIcEELb1EEENS_21__unordered_map_equalIcS2_S7_S5_Lb1EEENS_9allocatorIS2_EEE4findIcEENS_15__hash_iteratorIPNS_11__hash_nodeIS2_PvEEEERKT_, symObjAddr: 0x8918, symBinAddr: 0x100009414, symSize: 0x1B4 }
  - { offsetInCU: 0x1DF89, offset: 0x1DF89, size: 0x8, addend: 0x0, symName: __ZNSt3__119__hash_map_iteratorINS_15__hash_iteratorIPNS_11__hash_nodeINS_17__hash_value_typeIciEEPvEEEEEC1B7v160006ES8_, symObjAddr: 0x8ACC, symBinAddr: 0x1000095C8, symSize: 0x34 }
  - { offsetInCU: 0x1DFC2, offset: 0x1DFC2, size: 0x8, addend: 0x0, symName: __ZNSt3__112__hash_tableINS_17__hash_value_typeIciEENS_22__unordered_map_hasherIcS2_NS_4hashIcEENS_8equal_toIcEELb1EEENS_21__unordered_map_equalIcS2_S7_S5_Lb1EEENS_9allocatorIS2_EEE13hash_functionB7v160006Ev, symObjAddr: 0x8B00, symBinAddr: 0x1000095FC, symSize: 0x28 }
  - { offsetInCU: 0x1DFE8, offset: 0x1DFE8, size: 0x8, addend: 0x0, symName: __ZNKSt3__122__unordered_map_hasherIcNS_17__hash_value_typeIciEENS_4hashIcEENS_8equal_toIcEELb1EEclB7v160006ERKc, symObjAddr: 0x8B28, symBinAddr: 0x100009624, symSize: 0x30 }
  - { offsetInCU: 0x1E01D, offset: 0x1E01D, size: 0x8, addend: 0x0, symName: __ZNKSt3__112__hash_tableINS_17__hash_value_typeIciEENS_22__unordered_map_hasherIcS2_NS_4hashIcEENS_8equal_toIcEELb1EEENS_21__unordered_map_equalIcS2_S7_S5_Lb1EEENS_9allocatorIS2_EEE12bucket_countB7v160006Ev, symObjAddr: 0x8B58, symBinAddr: 0x100009654, symSize: 0x28 }
  - { offsetInCU: 0x1E043, offset: 0x1E043, size: 0x8, addend: 0x0, symName: __ZNKSt3__110unique_ptrIA_PNS_16__hash_node_baseIPNS_11__hash_nodeINS_17__hash_value_typeIciEEPvEEEENS_25__bucket_list_deallocatorINS_9allocatorIS9_EEEEEixB7v160006Em, symObjAddr: 0x8B80, symBinAddr: 0x10000967C, symSize: 0x34 }
  - { offsetInCU: 0x1E078, offset: 0x1E078, size: 0x8, addend: 0x0, symName: __ZNKSt3__116__hash_node_baseIPNS_11__hash_nodeINS_17__hash_value_typeIciEEPvEEE6__hashB7v160006Ev, symObjAddr: 0x8BB4, symBinAddr: 0x1000096B0, symSize: 0x18 }
  - { offsetInCU: 0x1E09E, offset: 0x1E09E, size: 0x8, addend: 0x0, symName: __ZNSt3__112__hash_tableINS_17__hash_value_typeIciEENS_22__unordered_map_hasherIcS2_NS_4hashIcEENS_8equal_toIcEELb1EEENS_21__unordered_map_equalIcS2_S7_S5_Lb1EEENS_9allocatorIS2_EEE6key_eqB7v160006Ev, symObjAddr: 0x8BCC, symBinAddr: 0x1000096C8, symSize: 0x28 }
  - { offsetInCU: 0x1E0C4, offset: 0x1E0C4, size: 0x8, addend: 0x0, symName: __ZNKSt3__121__unordered_map_equalIcNS_17__hash_value_typeIciEENS_8equal_toIcEENS_4hashIcEELb1EEclB7v160006ERKS2_RKc, symObjAddr: 0x8BF4, symBinAddr: 0x1000096F0, symSize: 0x48 }
  - { offsetInCU: 0x1E108, offset: 0x1E108, size: 0x8, addend: 0x0, symName: __ZNSt3__115__hash_iteratorIPNS_11__hash_nodeINS_17__hash_value_typeIciEEPvEEEC1B7v160006EPNS_16__hash_node_baseIS6_EEPKv, symObjAddr: 0x8C3C, symBinAddr: 0x100009738, symSize: 0x3C }
  - { offsetInCU: 0x1E150, offset: 0x1E150, size: 0x8, addend: 0x0, symName: __ZNSt3__112__hash_tableINS_17__hash_value_typeIciEENS_22__unordered_map_hasherIcS2_NS_4hashIcEENS_8equal_toIcEELb1EEENS_21__unordered_map_equalIcS2_S7_S5_Lb1EEENS_9allocatorIS2_EEE3endEv, symObjAddr: 0x8C78, symBinAddr: 0x100009774, symSize: 0x30 }
  - { offsetInCU: 0x1E178, offset: 0x1E178, size: 0x8, addend: 0x0, symName: __ZNSt3__117__compressed_pairImNS_22__unordered_map_hasherIcNS_17__hash_value_typeIciEENS_4hashIcEENS_8equal_toIcEELb1EEEE6secondB7v160006Ev, symObjAddr: 0x8CA8, symBinAddr: 0x1000097A4, symSize: 0x24 }
  - { offsetInCU: 0x1E19E, offset: 0x1E19E, size: 0x8, addend: 0x0, symName: __ZNSt3__122__compressed_pair_elemINS_22__unordered_map_hasherIcNS_17__hash_value_typeIciEENS_4hashIcEENS_8equal_toIcEELb1EEELi1ELb1EE5__getB7v160006Ev, symObjAddr: 0x8CCC, symBinAddr: 0x1000097C8, symSize: 0x14 }
  - { offsetInCU: 0x1E1C4, offset: 0x1E1C4, size: 0x8, addend: 0x0, symName: __ZNKSt3__110unique_ptrIA_PNS_16__hash_node_baseIPNS_11__hash_nodeINS_17__hash_value_typeIciEEPvEEEENS_25__bucket_list_deallocatorINS_9allocatorIS9_EEEEE11get_deleterB7v160006Ev, symObjAddr: 0x8CE0, symBinAddr: 0x1000097DC, symSize: 0x24 }
  - { offsetInCU: 0x1E1EA, offset: 0x1E1EA, size: 0x8, addend: 0x0, symName: __ZNKSt3__125__bucket_list_deallocatorINS_9allocatorIPNS_16__hash_node_baseIPNS_11__hash_nodeINS_17__hash_value_typeIciEEPvEEEEEEE4sizeB7v160006Ev, symObjAddr: 0x8D04, symBinAddr: 0x100009800, symSize: 0x28 }
  - { offsetInCU: 0x1E210, offset: 0x1E210, size: 0x8, addend: 0x0, symName: __ZNKSt3__117__compressed_pairIPPNS_16__hash_node_baseIPNS_11__hash_nodeINS_17__hash_value_typeIciEEPvEEEENS_25__bucket_list_deallocatorINS_9allocatorIS9_EEEEE6secondB7v160006Ev, symObjAddr: 0x8D2C, symBinAddr: 0x100009828, symSize: 0x28 }
  - { offsetInCU: 0x1E236, offset: 0x1E236, size: 0x8, addend: 0x0, symName: __ZNKSt3__122__compressed_pair_elemINS_25__bucket_list_deallocatorINS_9allocatorIPNS_16__hash_node_baseIPNS_11__hash_nodeINS_17__hash_value_typeIciEEPvEEEEEEEELi1ELb0EE5__getB7v160006Ev, symObjAddr: 0x8D54, symBinAddr: 0x100009850, symSize: 0x14 }
  - { offsetInCU: 0x1E25C, offset: 0x1E25C, size: 0x8, addend: 0x0, symName: __ZNKSt3__117__compressed_pairImNS_9allocatorIPNS_16__hash_node_baseIPNS_11__hash_nodeINS_17__hash_value_typeIciEEPvEEEEEEE5firstB7v160006Ev, symObjAddr: 0x8D68, symBinAddr: 0x100009864, symSize: 0x24 }
  - { offsetInCU: 0x1E282, offset: 0x1E282, size: 0x8, addend: 0x0, symName: __ZNKSt3__117__compressed_pairIPPNS_16__hash_node_baseIPNS_11__hash_nodeINS_17__hash_value_typeIciEEPvEEEENS_25__bucket_list_deallocatorINS_9allocatorIS9_EEEEE5firstB7v160006Ev, symObjAddr: 0x8D8C, symBinAddr: 0x100009888, symSize: 0x24 }
  - { offsetInCU: 0x1E2A8, offset: 0x1E2A8, size: 0x8, addend: 0x0, symName: __ZNKSt3__122__compressed_pair_elemIPPNS_16__hash_node_baseIPNS_11__hash_nodeINS_17__hash_value_typeIciEEPvEEEELi0ELb0EE5__getB7v160006Ev, symObjAddr: 0x8DB0, symBinAddr: 0x1000098AC, symSize: 0x14 }
  - { offsetInCU: 0x1E2CE, offset: 0x1E2CE, size: 0x8, addend: 0x0, symName: __ZNSt3__117__compressed_pairIfNS_21__unordered_map_equalIcNS_17__hash_value_typeIciEENS_8equal_toIcEENS_4hashIcEELb1EEEE6secondB7v160006Ev, symObjAddr: 0x8DC4, symBinAddr: 0x1000098C0, symSize: 0x24 }
  - { offsetInCU: 0x1E2F4, offset: 0x1E2F4, size: 0x8, addend: 0x0, symName: __ZNSt3__122__compressed_pair_elemINS_21__unordered_map_equalIcNS_17__hash_value_typeIciEENS_8equal_toIcEENS_4hashIcEELb1EEELi1ELb1EE5__getB7v160006Ev, symObjAddr: 0x8DE8, symBinAddr: 0x1000098E4, symSize: 0x14 }
  - { offsetInCU: 0x1E31A, offset: 0x1E31A, size: 0x8, addend: 0x0, symName: __ZNKSt3__117__hash_value_typeIciE11__get_valueB7v160006Ev, symObjAddr: 0x8DFC, symBinAddr: 0x1000098F8, symSize: 0x14 }
  - { offsetInCU: 0x1E340, offset: 0x1E340, size: 0x8, addend: 0x0, symName: __ZNSt3__115__hash_iteratorIPNS_11__hash_nodeINS_17__hash_value_typeIciEEPvEEEC2B7v160006EPNS_16__hash_node_baseIS6_EEPKv, symObjAddr: 0x8E10, symBinAddr: 0x10000990C, symSize: 0x24 }
  - { offsetInCU: 0x1E388, offset: 0x1E388, size: 0x8, addend: 0x0, symName: __ZNSt3__119__hash_map_iteratorINS_15__hash_iteratorIPNS_11__hash_nodeINS_17__hash_value_typeIciEEPvEEEEEC2B7v160006ES8_, symObjAddr: 0x8E34, symBinAddr: 0x100009930, symSize: 0x20 }
  - { offsetInCU: 0x1E3C1, offset: 0x1E3C1, size: 0x8, addend: 0x0, symName: __ZNSt3__114pointer_traitsIPNS_4pairIKciEEE10pointer_toB7v160006ERS3_, symObjAddr: 0x8E54, symBinAddr: 0x100009950, symSize: 0x14 }
  - { offsetInCU: 0x1E3E4, offset: 0x1E3E4, size: 0x8, addend: 0x0, symName: __ZNKSt3__115__hash_iteratorIPNS_11__hash_nodeINS_17__hash_value_typeIciEEPvEEEptB7v160006Ev, symObjAddr: 0x8E68, symBinAddr: 0x100009964, symSize: 0x30 }
  - { offsetInCU: 0x1E40A, offset: 0x1E40A, size: 0x8, addend: 0x0, symName: __ZNSt3__114pointer_traitsIPNS_17__hash_value_typeIciEEE10pointer_toB7v160006ERS2_, symObjAddr: 0x8E98, symBinAddr: 0x100009994, symSize: 0x14 }
  - { offsetInCU: 0x1E42D, offset: 0x1E42D, size: 0x8, addend: 0x0, symName: __ZNSt3__116allocator_traitsINS_9allocatorINS_11__hash_nodeINS_17__hash_value_typeIciEEPvEEEEE8allocateB7v160006ERS7_m, symObjAddr: 0x8EAC, symBinAddr: 0x1000099A8, symSize: 0x2C }
  - { offsetInCU: 0x1E460, offset: 0x1E460, size: 0x8, addend: 0x0, symName: __ZNSt3__126__hash_map_node_destructorINS_9allocatorINS_11__hash_nodeINS_17__hash_value_typeIciEEPvEEEEEC1B7v160006ERS7_, symObjAddr: 0x8ED8, symBinAddr: 0x1000099D4, symSize: 0x34 }
  - { offsetInCU: 0x1E49F, offset: 0x1E49F, size: 0x8, addend: 0x0, symName: __ZNSt3__110unique_ptrINS_11__hash_nodeINS_17__hash_value_typeIciEEPvEENS_26__hash_map_node_destructorINS_9allocatorIS5_EEEEEC1B7v160006ILb1EvEEPS5_NS_16__dependent_typeINS_27__unique_ptr_deleter_sfinaeIS9_EEXT_EE20__good_rval_ref_typeE, symObjAddr: 0x8F0C, symBinAddr: 0x100009A08, symSize: 0x3C }
  - { offsetInCU: 0x1E4F0, offset: 0x1E4F0, size: 0x8, addend: 0x0, symName: __ZNSt3__116allocator_traitsINS_9allocatorINS_11__hash_nodeINS_17__hash_value_typeIciEEPvEEEEE9constructB7v160006IKcJRSA_EvEEvRS7_PT_DpOT0_, symObjAddr: 0x8F48, symBinAddr: 0x100009A44, symSize: 0x34 }
  - { offsetInCU: 0x1E547, offset: 0x1E547, size: 0x8, addend: 0x0, symName: __ZNKSt3__110unique_ptrINS_11__hash_nodeINS_17__hash_value_typeIciEEPvEENS_26__hash_map_node_destructorINS_9allocatorIS5_EEEEEptB7v160006Ev, symObjAddr: 0x8F7C, symBinAddr: 0x100009A78, symSize: 0x28 }
  - { offsetInCU: 0x1E56D, offset: 0x1E56D, size: 0x8, addend: 0x0, symName: __ZNSt3__110unique_ptrINS_11__hash_nodeINS_17__hash_value_typeIciEEPvEENS_26__hash_map_node_destructorINS_9allocatorIS5_EEEEE11get_deleterB7v160006Ev, symObjAddr: 0x8FA4, symBinAddr: 0x100009AA0, symSize: 0x24 }
  - { offsetInCU: 0x1E593, offset: 0x1E593, size: 0x8, addend: 0x0, symName: __ZNSt3__116allocator_traitsINS_9allocatorINS_11__hash_nodeINS_17__hash_value_typeIciEEPvEEEEE9constructB7v160006IiJEvEEvRS7_PT_DpOT0_, symObjAddr: 0x8FC8, symBinAddr: 0x100009AC4, symSize: 0x2C }
  - { offsetInCU: 0x1E5D5, offset: 0x1E5D5, size: 0x8, addend: 0x0, symName: __ZNSt3__19allocatorINS_11__hash_nodeINS_17__hash_value_typeIciEEPvEEE8allocateB7v160006Em, symObjAddr: 0x8FF4, symBinAddr: 0x100009AF0, symSize: 0x8C }
  - { offsetInCU: 0x1E614, offset: 0x1E614, size: 0x8, addend: 0x0, symName: __ZNSt3__116allocator_traitsINS_9allocatorINS_11__hash_nodeINS_17__hash_value_typeIciEEPvEEEEE8max_sizeB7v160006IS7_vEEmRKS7_, symObjAddr: 0x9080, symBinAddr: 0x100009B7C, symSize: 0x24 }
  - { offsetInCU: 0x1E642, offset: 0x1E642, size: 0x8, addend: 0x0, symName: __ZNKSt3__19allocatorINS_11__hash_nodeINS_17__hash_value_typeIciEEPvEEE8max_sizeB7v160006Ev, symObjAddr: 0x90A4, symBinAddr: 0x100009BA0, symSize: 0x18 }
  - { offsetInCU: 0x1E668, offset: 0x1E668, size: 0x8, addend: 0x0, symName: __ZNSt3__126__hash_map_node_destructorINS_9allocatorINS_11__hash_nodeINS_17__hash_value_typeIciEEPvEEEEEC2B7v160006ERS7_, symObjAddr: 0x90BC, symBinAddr: 0x100009BB8, symSize: 0x28 }
  - { offsetInCU: 0x1E6A1, offset: 0x1E6A1, size: 0x8, addend: 0x0, symName: __ZNSt3__110unique_ptrINS_11__hash_nodeINS_17__hash_value_typeIciEEPvEENS_26__hash_map_node_destructorINS_9allocatorIS5_EEEEEC2B7v160006ILb1EvEEPS5_NS_16__dependent_typeINS_27__unique_ptr_deleter_sfinaeIS9_EEXT_EE20__good_rval_ref_typeE, symObjAddr: 0x90E4, symBinAddr: 0x100009BE0, symSize: 0x5C }
  - { offsetInCU: 0x1E6F2, offset: 0x1E6F2, size: 0x8, addend: 0x0, symName: __ZNSt3__117__compressed_pairIPNS_11__hash_nodeINS_17__hash_value_typeIciEEPvEENS_26__hash_map_node_destructorINS_9allocatorIS5_EEEEEC1B7v160006IRS6_SA_EEOT_OT0_, symObjAddr: 0x9140, symBinAddr: 0x100009C3C, symSize: 0x3C }
  - { offsetInCU: 0x1E74A, offset: 0x1E74A, size: 0x8, addend: 0x0, symName: __ZNSt3__117__compressed_pairIPNS_11__hash_nodeINS_17__hash_value_typeIciEEPvEENS_26__hash_map_node_destructorINS_9allocatorIS5_EEEEEC2B7v160006IRS6_SA_EEOT_OT0_, symObjAddr: 0x917C, symBinAddr: 0x100009C78, symSize: 0x48 }
  - { offsetInCU: 0x1E7A2, offset: 0x1E7A2, size: 0x8, addend: 0x0, symName: __ZNSt3__122__compressed_pair_elemIPNS_11__hash_nodeINS_17__hash_value_typeIciEEPvEELi0ELb0EEC2B7v160006IRS6_vEEOT_, symObjAddr: 0x91C4, symBinAddr: 0x100009CC0, symSize: 0x24 }
  - { offsetInCU: 0x1E7E4, offset: 0x1E7E4, size: 0x8, addend: 0x0, symName: __ZNSt3__122__compressed_pair_elemINS_26__hash_map_node_destructorINS_9allocatorINS_11__hash_nodeINS_17__hash_value_typeIciEEPvEEEEEELi1ELb0EEC2B7v160006IS9_vEEOT_, symObjAddr: 0x91E8, symBinAddr: 0x100009CE4, symSize: 0x24 }
  - { offsetInCU: 0x1E826, offset: 0x1E826, size: 0x8, addend: 0x0, symName: __ZNSt3__19allocatorINS_11__hash_nodeINS_17__hash_value_typeIciEEPvEEE9constructB7v160006IKcJRS8_EEEvPT_DpOT0_, symObjAddr: 0x920C, symBinAddr: 0x100009D08, symSize: 0x28 }
  - { offsetInCU: 0x1E87C, offset: 0x1E87C, size: 0x8, addend: 0x0, symName: __ZNKSt3__117__compressed_pairIPNS_11__hash_nodeINS_17__hash_value_typeIciEEPvEENS_26__hash_map_node_destructorINS_9allocatorIS5_EEEEE5firstB7v160006Ev, symObjAddr: 0x9234, symBinAddr: 0x100009D30, symSize: 0x24 }
  - { offsetInCU: 0x1E8A2, offset: 0x1E8A2, size: 0x8, addend: 0x0, symName: __ZNKSt3__122__compressed_pair_elemIPNS_11__hash_nodeINS_17__hash_value_typeIciEEPvEELi0ELb0EE5__getB7v160006Ev, symObjAddr: 0x9258, symBinAddr: 0x100009D54, symSize: 0x14 }
  - { offsetInCU: 0x1E8C8, offset: 0x1E8C8, size: 0x8, addend: 0x0, symName: __ZNSt3__117__compressed_pairIPNS_11__hash_nodeINS_17__hash_value_typeIciEEPvEENS_26__hash_map_node_destructorINS_9allocatorIS5_EEEEE6secondB7v160006Ev, symObjAddr: 0x926C, symBinAddr: 0x100009D68, symSize: 0x28 }
  - { offsetInCU: 0x1E8EE, offset: 0x1E8EE, size: 0x8, addend: 0x0, symName: __ZNSt3__122__compressed_pair_elemINS_26__hash_map_node_destructorINS_9allocatorINS_11__hash_nodeINS_17__hash_value_typeIciEEPvEEEEEELi1ELb0EE5__getB7v160006Ev, symObjAddr: 0x9294, symBinAddr: 0x100009D90, symSize: 0x14 }
  - { offsetInCU: 0x1E914, offset: 0x1E914, size: 0x8, addend: 0x0, symName: __ZNSt3__19allocatorINS_11__hash_nodeINS_17__hash_value_typeIciEEPvEEE9constructB7v160006IiJEEEvPT_DpOT0_, symObjAddr: 0x92A8, symBinAddr: 0x100009DA4, symSize: 0x1C }
  - { offsetInCU: 0x1E956, offset: 0x1E956, size: 0x8, addend: 0x0, symName: __ZNKSt3__122__unordered_map_hasherIcNS_17__hash_value_typeIciEENS_4hashIcEENS_8equal_toIcEELb1EEclB7v160006ERKS2_, symObjAddr: 0x92C4, symBinAddr: 0x100009DC0, symSize: 0x40 }
  - { offsetInCU: 0x1E98B, offset: 0x1E98B, size: 0x8, addend: 0x0, symName: __ZNSt3__112__hash_tableINS_17__hash_value_typeIciEENS_22__unordered_map_hasherIcS2_NS_4hashIcEENS_8equal_toIcEELb1EEENS_21__unordered_map_equalIcS2_S7_S5_Lb1EEENS_9allocatorIS2_EEE28__node_insert_unique_prepareB7v160006EmRS2_, symObjAddr: 0x9304, symBinAddr: 0x100009E00, symSize: 0x244 }
  - { offsetInCU: 0x1EA0C, offset: 0x1EA0C, size: 0x8, addend: 0x0, symName: __ZNSt3__112__hash_tableINS_17__hash_value_typeIciEENS_22__unordered_map_hasherIcS2_NS_4hashIcEENS_8equal_toIcEELb1EEENS_21__unordered_map_equalIcS2_S7_S5_Lb1EEENS_9allocatorIS2_EEE28__node_insert_unique_performB7v160006EPNS_11__hash_nodeIS2_PvEE, symObjAddr: 0x9548, symBinAddr: 0x10000A044, symSize: 0x154 }
  - { offsetInCU: 0x1EA70, offset: 0x1EA70, size: 0x8, addend: 0x0, symName: __ZNSt3__116__hash_node_baseIPNS_11__hash_nodeINS_17__hash_value_typeIciEEPvEEE5__ptrB7v160006Ev, symObjAddr: 0x969C, symBinAddr: 0x10000A198, symSize: 0x24 }
  - { offsetInCU: 0x1EA96, offset: 0x1EA96, size: 0x8, addend: 0x0, symName: __ZNSt3__14pairINS_15__hash_iteratorIPNS_11__hash_nodeINS_17__hash_value_typeIciEEPvEEEEbEC1B7v160006ERKS8_RKb, symObjAddr: 0x96C0, symBinAddr: 0x10000A1BC, symSize: 0x3C }
  - { offsetInCU: 0x1EADC, offset: 0x1EADC, size: 0x8, addend: 0x0, symName: __ZNKSt3__121__unordered_map_equalIcNS_17__hash_value_typeIciEENS_8equal_toIcEENS_4hashIcEELb1EEclB7v160006ERKS2_S9_, symObjAddr: 0x96FC, symBinAddr: 0x10000A1F8, symSize: 0x54 }
  - { offsetInCU: 0x1EB20, offset: 0x1EB20, size: 0x8, addend: 0x0, symName: __ZNSt3__112__hash_tableINS_17__hash_value_typeIciEENS_22__unordered_map_hasherIcS2_NS_4hashIcEENS_8equal_toIcEELb1EEENS_21__unordered_map_equalIcS2_S7_S5_Lb1EEENS_9allocatorIS2_EEE4sizeB7v160006Ev, symObjAddr: 0x9750, symBinAddr: 0x10000A24C, symSize: 0x28 }
  - { offsetInCU: 0x1EB46, offset: 0x1EB46, size: 0x8, addend: 0x0, symName: __ZNSt3__112__hash_tableINS_17__hash_value_typeIciEENS_22__unordered_map_hasherIcS2_NS_4hashIcEENS_8equal_toIcEELb1EEENS_21__unordered_map_equalIcS2_S7_S5_Lb1EEENS_9allocatorIS2_EEE15max_load_factorB7v160006Ev, symObjAddr: 0x9778, symBinAddr: 0x10000A274, symSize: 0x28 }
  - { offsetInCU: 0x1EB6C, offset: 0x1EB6C, size: 0x8, addend: 0x0, symName: __ZNSt3__112__hash_tableINS_17__hash_value_typeIciEENS_22__unordered_map_hasherIcS2_NS_4hashIcEENS_8equal_toIcEELb1EEENS_21__unordered_map_equalIcS2_S7_S5_Lb1EEENS_9allocatorIS2_EEE15__rehash_uniqueB7v160006Em, symObjAddr: 0x97A0, symBinAddr: 0x10000A29C, symSize: 0x2C }
  - { offsetInCU: 0x1EBA1, offset: 0x1EBA1, size: 0x8, addend: 0x0, symName: __ZNSt3__117__compressed_pairImNS_22__unordered_map_hasherIcNS_17__hash_value_typeIciEENS_4hashIcEENS_8equal_toIcEELb1EEEE5firstB7v160006Ev, symObjAddr: 0x97CC, symBinAddr: 0x10000A2C8, symSize: 0x24 }
  - { offsetInCU: 0x1EBC7, offset: 0x1EBC7, size: 0x8, addend: 0x0, symName: __ZNSt3__117__compressed_pairIfNS_21__unordered_map_equalIcNS_17__hash_value_typeIciEENS_8equal_toIcEENS_4hashIcEELb1EEEE5firstB7v160006Ev, symObjAddr: 0x97F0, symBinAddr: 0x10000A2EC, symSize: 0x24 }
  - { offsetInCU: 0x1EBED, offset: 0x1EBED, size: 0x8, addend: 0x0, symName: __ZNSt3__112__hash_tableINS_17__hash_value_typeIciEENS_22__unordered_map_hasherIcS2_NS_4hashIcEENS_8equal_toIcEELb1EEENS_21__unordered_map_equalIcS2_S7_S5_Lb1EEENS_9allocatorIS2_EEE8__rehashILb1EEEvm, symObjAddr: 0x9814, symBinAddr: 0x10000A310, symSize: 0x1A8 }
  - { offsetInCU: 0x1EC3D, offset: 0x1EC3D, size: 0x8, addend: 0x0, symName: __ZNSt3__112__hash_tableINS_17__hash_value_typeIciEENS_22__unordered_map_hasherIcS2_NS_4hashIcEENS_8equal_toIcEELb1EEENS_21__unordered_map_equalIcS2_S7_S5_Lb1EEENS_9allocatorIS2_EEE11__do_rehashILb1EEEvm, symObjAddr: 0x99BC, symBinAddr: 0x10000A4B8, symSize: 0x290 }
  - { offsetInCU: 0x1ED20, offset: 0x1ED20, size: 0x8, addend: 0x0, symName: __ZNSt3__110unique_ptrIA_PNS_16__hash_node_baseIPNS_11__hash_nodeINS_17__hash_value_typeIciEEPvEEEENS_25__bucket_list_deallocatorINS_9allocatorIS9_EEEEE11get_deleterB7v160006Ev, symObjAddr: 0x9C5C, symBinAddr: 0x10000A758, symSize: 0x24 }
  - { offsetInCU: 0x1ED46, offset: 0x1ED46, size: 0x8, addend: 0x0, symName: __ZNSt3__110unique_ptrIA_PNS_16__hash_node_baseIPNS_11__hash_nodeINS_17__hash_value_typeIciEEPvEEEENS_25__bucket_list_deallocatorINS_9allocatorIS9_EEEEE5resetB7v160006IPS9_EENS_9enable_ifIXsr28_CheckArrayPointerConversionIT_EE5valueEvE4typeESJ_, symObjAddr: 0x9C80, symBinAddr: 0x10000A77C, symSize: 0x78 }
  - { offsetInCU: 0x1ED93, offset: 0x1ED93, size: 0x8, addend: 0x0, symName: __ZNSt3__116allocator_traitsINS_9allocatorIPNS_16__hash_node_baseIPNS_11__hash_nodeINS_17__hash_value_typeIciEEPvEEEEEEE8allocateB7v160006ERSB_m, symObjAddr: 0x9CF8, symBinAddr: 0x10000A7F4, symSize: 0x2C }
  - { offsetInCU: 0x1EDC6, offset: 0x1EDC6, size: 0x8, addend: 0x0, symName: __ZNSt3__19allocatorIPNS_16__hash_node_baseIPNS_11__hash_nodeINS_17__hash_value_typeIciEEPvEEEEE8allocateB7v160006Em, symObjAddr: 0x9D24, symBinAddr: 0x10000A820, symSize: 0x84 }
  - { offsetInCU: 0x1EE05, offset: 0x1EE05, size: 0x8, addend: 0x0, symName: __ZNSt3__116allocator_traitsINS_9allocatorIPNS_16__hash_node_baseIPNS_11__hash_nodeINS_17__hash_value_typeIciEEPvEEEEEEE8max_sizeB7v160006ISB_vEEmRKSB_, symObjAddr: 0x9DA8, symBinAddr: 0x10000A8A4, symSize: 0x24 }
  - { offsetInCU: 0x1EE33, offset: 0x1EE33, size: 0x8, addend: 0x0, symName: __ZNKSt3__19allocatorIPNS_16__hash_node_baseIPNS_11__hash_nodeINS_17__hash_value_typeIciEEPvEEEEE8max_sizeB7v160006Ev, symObjAddr: 0x9DCC, symBinAddr: 0x10000A8C8, symSize: 0x14 }
  - { offsetInCU: 0x1EE59, offset: 0x1EE59, size: 0x8, addend: 0x0, symName: __ZNSt3__14pairINS_15__hash_iteratorIPNS_11__hash_nodeINS_17__hash_value_typeIciEEPvEEEEbEC2B7v160006ERKS8_RKb, symObjAddr: 0x9DE0, symBinAddr: 0x10000A8DC, symSize: 0x38 }
  - { offsetInCU: 0x1EE9F, offset: 0x1EE9F, size: 0x8, addend: 0x0, symName: __ZNSt3__14pairINS_19__hash_map_iteratorINS_15__hash_iteratorIPNS_11__hash_nodeINS_17__hash_value_typeIciEEPvEEEEEEbEC2B7v160006IS9_bEERKNS0_IT_T0_EE, symObjAddr: 0x9E18, symBinAddr: 0x10000A914, symSize: 0x50 }
  - { offsetInCU: 0x1EEE9, offset: 0x1EEE9, size: 0x8, addend: 0x0, symName: __ZNSt3__117__compressed_pairIPNS_11__hash_nodeINS_17__hash_value_typeIciEEPvEENS_26__hash_map_node_destructorINS_9allocatorIS5_EEEEE5firstB7v160006Ev, symObjAddr: 0x9E68, symBinAddr: 0x10000A964, symSize: 0x24 }
  - { offsetInCU: 0x1EF0F, offset: 0x1EF0F, size: 0x8, addend: 0x0, symName: __ZNSt3__122__compressed_pair_elemIPNS_11__hash_nodeINS_17__hash_value_typeIciEEPvEELi0ELb0EE5__getB7v160006Ev, symObjAddr: 0x9E8C, symBinAddr: 0x10000A988, symSize: 0x14 }
  - { offsetInCU: 0x1EF35, offset: 0x1EF35, size: 0x8, addend: 0x0, symName: __ZNSt3__110unique_ptrINS_11__hash_nodeINS_17__hash_value_typeIciEEPvEENS_26__hash_map_node_destructorINS_9allocatorIS5_EEEEED2B7v160006Ev, symObjAddr: 0x9EA0, symBinAddr: 0x10000A99C, symSize: 0x30 }
  - { offsetInCU: 0x1EF5F, offset: 0x1EF5F, size: 0x8, addend: 0x0, symName: __ZNSt3__110unique_ptrINS_11__hash_nodeINS_17__hash_value_typeIciEEPvEENS_26__hash_map_node_destructorINS_9allocatorIS5_EEEEE5resetB7v160006EPS5_, symObjAddr: 0x9ED0, symBinAddr: 0x10000A9CC, symSize: 0x78 }
  - { offsetInCU: 0x1EFA3, offset: 0x1EFA3, size: 0x8, addend: 0x0, symName: __ZNSt3__126__hash_map_node_destructorINS_9allocatorINS_11__hash_nodeINS_17__hash_value_typeIciEEPvEEEEEclB7v160006EPS6_, symObjAddr: 0x9F48, symBinAddr: 0x10000AA44, symSize: 0xE4 }
  - { offsetInCU: 0x1EFD8, offset: 0x1EFD8, size: 0x8, addend: 0x0, symName: __ZNSt3__116allocator_traitsINS_9allocatorINS_11__hash_nodeINS_17__hash_value_typeIciEEPvEEEEE7destroyB7v160006IivvEEvRS7_PT_, symObjAddr: 0xA02C, symBinAddr: 0x10000AB28, symSize: 0x14 }
  - { offsetInCU: 0x1F012, offset: 0x1F012, size: 0x8, addend: 0x0, symName: __ZNSt3__116allocator_traitsINS_9allocatorINS_11__hash_nodeINS_17__hash_value_typeIciEEPvEEEEE7destroyB7v160006IKcvvEEvRS7_PT_, symObjAddr: 0xA040, symBinAddr: 0x10000AB3C, symSize: 0x14 }
  - { offsetInCU: 0x1F04C, offset: 0x1F04C, size: 0x8, addend: 0x0, symName: __ZNSt3__114priority_queueIP4NodeNS_6vectorIS2_NS_9allocatorIS2_EEEE4compEC2B7v160006Ev, symObjAddr: 0xA054, symBinAddr: 0x10000AB50, symSize: 0x2C }
  - { offsetInCU: 0x1F076, offset: 0x1F076, size: 0x8, addend: 0x0, symName: __ZNSt3__16vectorIP4NodeNS_9allocatorIS2_EEEC1B7v160006Ev, symObjAddr: 0xA080, symBinAddr: 0x10000AB7C, symSize: 0x2C }
  - { offsetInCU: 0x1F0A0, offset: 0x1F0A0, size: 0x8, addend: 0x0, symName: __ZNSt3__16vectorIP4NodeNS_9allocatorIS2_EEEC2B7v160006Ev, symObjAddr: 0xA0AC, symBinAddr: 0x10000ABA8, symSize: 0x4C }
  - { offsetInCU: 0x1F0D0, offset: 0x1F0D0, size: 0x8, addend: 0x0, symName: __ZNSt3__117__compressed_pairIPP4NodeNS_9allocatorIS2_EEEC1B7v160006IDnNS_18__default_init_tagEEEOT_OT0_, symObjAddr: 0xA0F8, symBinAddr: 0x10000ABF4, symSize: 0x3C }
  - { offsetInCU: 0x1F128, offset: 0x1F128, size: 0x8, addend: 0x0, symName: __ZNSt3__117__compressed_pairIPP4NodeNS_9allocatorIS2_EEEC2B7v160006IDnNS_18__default_init_tagEEEOT_OT0_, symObjAddr: 0xA144, symBinAddr: 0x10000AC40, symSize: 0x40 }
  - { offsetInCU: 0x1F180, offset: 0x1F180, size: 0x8, addend: 0x0, symName: __ZNSt3__122__compressed_pair_elemIPP4NodeLi0ELb0EEC2B7v160006IDnvEEOT_, symObjAddr: 0xA184, symBinAddr: 0x10000AC80, symSize: 0x1C }
  - { offsetInCU: 0x1F1C2, offset: 0x1F1C2, size: 0x8, addend: 0x0, symName: __ZNSt3__122__compressed_pair_elemINS_9allocatorIP4NodeEELi1ELb1EEC2B7v160006ENS_18__default_init_tagE, symObjAddr: 0xA1A0, symBinAddr: 0x10000AC9C, symSize: 0x2C }
  - { offsetInCU: 0x1F1F7, offset: 0x1F1F7, size: 0x8, addend: 0x0, symName: __ZNSt3__19allocatorIP4NodeEC2B7v160006Ev, symObjAddr: 0xA1CC, symBinAddr: 0x10000ACC8, symSize: 0x2C }
  - { offsetInCU: 0x1F221, offset: 0x1F221, size: 0x8, addend: 0x0, symName: __ZNSt3__116__non_trivial_ifILb1ENS_9allocatorIP4NodeEEEC2B7v160006Ev, symObjAddr: 0xA1F8, symBinAddr: 0x10000ACF4, symSize: 0x14 }
  - { offsetInCU: 0x1F24B, offset: 0x1F24B, size: 0x8, addend: 0x0, symName: __ZNSt3__112__hash_tableINS_17__hash_value_typeIciEENS_22__unordered_map_hasherIcS2_NS_4hashIcEENS_8equal_toIcEELb1EEENS_21__unordered_map_equalIcS2_S7_S5_Lb1EEENS_9allocatorIS2_EEE5beginEv, symObjAddr: 0xA20C, symBinAddr: 0x10000AD08, symSize: 0x40 }
  - { offsetInCU: 0x1F273, offset: 0x1F273, size: 0x8, addend: 0x0, symName: __ZNSt3__115__hash_iteratorIPNS_11__hash_nodeINS_17__hash_value_typeIciEEPvEEEppB7v160006Ev, symObjAddr: 0xA2B0, symBinAddr: 0x10000ADAC, symSize: 0x20 }
  - { offsetInCU: 0x1F299, offset: 0x1F299, size: 0x8, addend: 0x0, symName: __ZNSt3__16vectorIP4NodeNS_9allocatorIS2_EEE9push_backB7v160006ERKS2_, symObjAddr: 0xA2D0, symBinAddr: 0x10000ADCC, symSize: 0x6C }
  - { offsetInCU: 0x1F2D0, offset: 0x1F2D0, size: 0x8, addend: 0x0, symName: __ZNSt3__16vectorIP4NodeNS_9allocatorIS2_EEE5beginB7v160006Ev, symObjAddr: 0xA37C, symBinAddr: 0x10000AE78, symSize: 0x30 }
  - { offsetInCU: 0x1F2F8, offset: 0x1F2F8, size: 0x8, addend: 0x0, symName: __ZNSt3__16vectorIP4NodeNS_9allocatorIS2_EEE3endB7v160006Ev, symObjAddr: 0xA3AC, symBinAddr: 0x10000AEA8, symSize: 0x30 }
  - { offsetInCU: 0x1F320, offset: 0x1F320, size: 0x8, addend: 0x0, symName: __ZNSt3__16vectorIP4NodeNS_9allocatorIS2_EEE9__end_capB7v160006Ev, symObjAddr: 0xA3DC, symBinAddr: 0x10000AED8, symSize: 0x28 }
  - { offsetInCU: 0x1F346, offset: 0x1F346, size: 0x8, addend: 0x0, symName: __ZNSt3__16vectorIP4NodeNS_9allocatorIS2_EEE22__construct_one_at_endB7v160006IJRKS2_EEEvDpOT_, symObjAddr: 0xA404, symBinAddr: 0x10000AF00, symSize: 0x98 }
  - { offsetInCU: 0x1F395, offset: 0x1F395, size: 0x8, addend: 0x0, symName: __ZNSt3__16vectorIP4NodeNS_9allocatorIS2_EEE21__push_back_slow_pathIRKS2_EEvOT_, symObjAddr: 0xA49C, symBinAddr: 0x10000AF98, symSize: 0xE0 }
  - { offsetInCU: 0x1F3F3, offset: 0x1F3F3, size: 0x8, addend: 0x0, symName: __ZNSt3__117__compressed_pairIPP4NodeNS_9allocatorIS2_EEE5firstB7v160006Ev, symObjAddr: 0xA57C, symBinAddr: 0x10000B078, symSize: 0x24 }
  - { offsetInCU: 0x1F419, offset: 0x1F419, size: 0x8, addend: 0x0, symName: __ZNSt3__122__compressed_pair_elemIPP4NodeLi0ELb0EE5__getB7v160006Ev, symObjAddr: 0xA5A0, symBinAddr: 0x10000B09C, symSize: 0x14 }
  - { offsetInCU: 0x1F45A, offset: 0x1F45A, size: 0x8, addend: 0x0, symName: __ZNSt3__16vectorIP4NodeNS_9allocatorIS2_EEE21_ConstructTransactionC1B7v160006ERS5_m, symObjAddr: 0xA5B4, symBinAddr: 0x10000B0B0, symSize: 0x3C }
  - { offsetInCU: 0x1F4A2, offset: 0x1F4A2, size: 0x8, addend: 0x0, symName: __ZNSt3__116allocator_traitsINS_9allocatorIP4NodeEEE9constructB7v160006IS3_JRKS3_EvEEvRS4_PT_DpOT0_, symObjAddr: 0xA5F0, symBinAddr: 0x10000B0EC, symSize: 0x34 }
  - { offsetInCU: 0x1F4F9, offset: 0x1F4F9, size: 0x8, addend: 0x0, symName: __ZNSt3__16vectorIP4NodeNS_9allocatorIS2_EEE21_ConstructTransactionD1B7v160006Ev, symObjAddr: 0xA624, symBinAddr: 0x10000B120, symSize: 0x2C }
  - { offsetInCU: 0x1F523, offset: 0x1F523, size: 0x8, addend: 0x0, symName: __ZNSt3__16vectorIP4NodeNS_9allocatorIS2_EEE21_ConstructTransactionC2B7v160006ERS5_m, symObjAddr: 0xA650, symBinAddr: 0x10000B14C, symSize: 0x44 }
  - { offsetInCU: 0x1F56B, offset: 0x1F56B, size: 0x8, addend: 0x0, symName: __ZNSt3__19allocatorIP4NodeE9constructB7v160006IS2_JRKS2_EEEvPT_DpOT0_, symObjAddr: 0xA694, symBinAddr: 0x10000B190, symSize: 0x28 }
  - { offsetInCU: 0x1F5C1, offset: 0x1F5C1, size: 0x8, addend: 0x0, symName: __ZNSt3__16vectorIP4NodeNS_9allocatorIS2_EEE21_ConstructTransactionD2B7v160006Ev, symObjAddr: 0xA6BC, symBinAddr: 0x10000B1B8, symSize: 0x20 }
  - { offsetInCU: 0x1F5EB, offset: 0x1F5EB, size: 0x8, addend: 0x0, symName: __ZNKSt3__16vectorIP4NodeNS_9allocatorIS2_EEE11__recommendB7v160006Em, symObjAddr: 0xA6DC, symBinAddr: 0x10000B1D8, symSize: 0xB4 }
  - { offsetInCU: 0x1F640, offset: 0x1F640, size: 0x8, addend: 0x0, symName: __ZNSt3__114__split_bufferIP4NodeRNS_9allocatorIS2_EEEC1EmmS5_, symObjAddr: 0xA790, symBinAddr: 0x10000B28C, symSize: 0x44 }
  - { offsetInCU: 0x1F696, offset: 0x1F696, size: 0x8, addend: 0x0, symName: __ZNSt3__114__split_bufferIP4NodeRNS_9allocatorIS2_EEED1Ev, symObjAddr: 0xA8EC, symBinAddr: 0x10000B3E8, symSize: 0x2C }
  - { offsetInCU: 0x1F6C2, offset: 0x1F6C2, size: 0x8, addend: 0x0, symName: __ZNKSt3__16vectorIP4NodeNS_9allocatorIS2_EEE8max_sizeEv, symObjAddr: 0xA918, symBinAddr: 0x10000B414, symSize: 0x74 }
  - { offsetInCU: 0x1F6EA, offset: 0x1F6EA, size: 0x8, addend: 0x0, symName: __ZNKSt3__16vectorIP4NodeNS_9allocatorIS2_EEE20__throw_length_errorB7v160006Ev, symObjAddr: 0xA98C, symBinAddr: 0x10000B488, symSize: 0x1C }
  - { offsetInCU: 0x1F71B, offset: 0x1F71B, size: 0x8, addend: 0x0, symName: __ZNSt3__116allocator_traitsINS_9allocatorIP4NodeEEE8max_sizeB7v160006IS4_vEEmRKS4_, symObjAddr: 0xA9D4, symBinAddr: 0x10000B4D0, symSize: 0x24 }
  - { offsetInCU: 0x1F749, offset: 0x1F749, size: 0x8, addend: 0x0, symName: __ZNKSt3__16vectorIP4NodeNS_9allocatorIS2_EEE7__allocB7v160006Ev, symObjAddr: 0xA9F8, symBinAddr: 0x10000B4F4, symSize: 0x28 }
  - { offsetInCU: 0x1F76F, offset: 0x1F76F, size: 0x8, addend: 0x0, symName: __ZNSt3__114numeric_limitsIlE3maxB7v160006Ev, symObjAddr: 0xAA20, symBinAddr: 0x10000B51C, symSize: 0x14 }
  - { offsetInCU: 0x1F783, offset: 0x1F783, size: 0x8, addend: 0x0, symName: __ZNKSt3__19allocatorIP4NodeE8max_sizeB7v160006Ev, symObjAddr: 0xAA88, symBinAddr: 0x10000B584, symSize: 0x14 }
  - { offsetInCU: 0x1F7A9, offset: 0x1F7A9, size: 0x8, addend: 0x0, symName: __ZNKSt3__117__compressed_pairIPP4NodeNS_9allocatorIS2_EEE6secondB7v160006Ev, symObjAddr: 0xAA9C, symBinAddr: 0x10000B598, symSize: 0x24 }
  - { offsetInCU: 0x1F7CF, offset: 0x1F7CF, size: 0x8, addend: 0x0, symName: __ZNKSt3__122__compressed_pair_elemINS_9allocatorIP4NodeEELi1ELb1EE5__getB7v160006Ev, symObjAddr: 0xAAC0, symBinAddr: 0x10000B5BC, symSize: 0x14 }
  - { offsetInCU: 0x1F7F5, offset: 0x1F7F5, size: 0x8, addend: 0x0, symName: __ZNSt3__123__libcpp_numeric_limitsIlLb1EE3maxB7v160006Ev, symObjAddr: 0xAAD4, symBinAddr: 0x10000B5D0, symSize: 0x8 }
  - { offsetInCU: 0x1F809, offset: 0x1F809, size: 0x8, addend: 0x0, symName: __ZNSt3__114__split_bufferIP4NodeRNS_9allocatorIS2_EEEC2EmmS5_, symObjAddr: 0xAADC, symBinAddr: 0x10000B5D8, symSize: 0xD4 }
  - { offsetInCU: 0x1F87C, offset: 0x1F87C, size: 0x8, addend: 0x0, symName: __ZNSt3__117__compressed_pairIPP4NodeRNS_9allocatorIS2_EEEC1B7v160006IDnS6_EEOT_OT0_, symObjAddr: 0xABB0, symBinAddr: 0x10000B6AC, symSize: 0x3C }
  - { offsetInCU: 0x1F8D4, offset: 0x1F8D4, size: 0x8, addend: 0x0, symName: __ZNSt3__114__split_bufferIP4NodeRNS_9allocatorIS2_EEE7__allocB7v160006Ev, symObjAddr: 0xAC2C, symBinAddr: 0x10000B728, symSize: 0x28 }
  - { offsetInCU: 0x1F8FA, offset: 0x1F8FA, size: 0x8, addend: 0x0, symName: __ZNSt3__114__split_bufferIP4NodeRNS_9allocatorIS2_EEE9__end_capB7v160006Ev, symObjAddr: 0xAC54, symBinAddr: 0x10000B750, symSize: 0x28 }
  - { offsetInCU: 0x1F920, offset: 0x1F920, size: 0x8, addend: 0x0, symName: __ZNSt3__117__compressed_pairIPP4NodeRNS_9allocatorIS2_EEEC2B7v160006IDnS6_EEOT_OT0_, symObjAddr: 0xAC7C, symBinAddr: 0x10000B778, symSize: 0x48 }
  - { offsetInCU: 0x1F978, offset: 0x1F978, size: 0x8, addend: 0x0, symName: __ZNSt3__122__compressed_pair_elemIRNS_9allocatorIP4NodeEELi1ELb0EEC2B7v160006IS5_vEEOT_, symObjAddr: 0xACC4, symBinAddr: 0x10000B7C0, symSize: 0x20 }
  - { offsetInCU: 0x1F9BA, offset: 0x1F9BA, size: 0x8, addend: 0x0, symName: __ZNSt3__19allocatorIP4NodeE8allocateB7v160006Em, symObjAddr: 0xACE4, symBinAddr: 0x10000B7E0, symSize: 0x84 }
  - { offsetInCU: 0x1F9EE, offset: 0x1F9EE, size: 0x8, addend: 0x0, symName: __ZNSt3__117__compressed_pairIPP4NodeRNS_9allocatorIS2_EEE6secondB7v160006Ev, symObjAddr: 0xAD68, symBinAddr: 0x10000B864, symSize: 0x28 }
  - { offsetInCU: 0x1FA14, offset: 0x1FA14, size: 0x8, addend: 0x0, symName: __ZNSt3__122__compressed_pair_elemIRNS_9allocatorIP4NodeEELi1ELb0EE5__getB7v160006Ev, symObjAddr: 0xAD90, symBinAddr: 0x10000B88C, symSize: 0x18 }
  - { offsetInCU: 0x1FA3A, offset: 0x1FA3A, size: 0x8, addend: 0x0, symName: __ZNSt3__117__compressed_pairIPP4NodeRNS_9allocatorIS2_EEE5firstB7v160006Ev, symObjAddr: 0xADA8, symBinAddr: 0x10000B8A4, symSize: 0x24 }
  - { offsetInCU: 0x1FA60, offset: 0x1FA60, size: 0x8, addend: 0x0, symName: __ZNSt3__116reverse_iteratorIPP4NodeEC1B7v160006ES3_, symObjAddr: 0xAEB4, symBinAddr: 0x10000B9B0, symSize: 0x34 }
  - { offsetInCU: 0x1FA98, offset: 0x1FA98, size: 0x8, addend: 0x0, symName: __ZNKSt3__116reverse_iteratorIPP4NodeE4baseB7v160006Ev, symObjAddr: 0xAEE8, symBinAddr: 0x10000B9E4, symSize: 0x18 }
  - { offsetInCU: 0x1FABE, offset: 0x1FABE, size: 0x8, addend: 0x0, symName: __ZNKSt3__16vectorIP4NodeNS_9allocatorIS2_EEE14__annotate_newB7v160006Em, symObjAddr: 0xAF3C, symBinAddr: 0x10000BA38, symSize: 0xAC }
  - { offsetInCU: 0x1FAF3, offset: 0x1FAF3, size: 0x8, addend: 0x0, symName: __ZNKSt3__116reverse_iteratorIPP4NodeEdeB7v160006Ev, symObjAddr: 0xB090, symBinAddr: 0x10000BB8C, symSize: 0x28 }
  - { offsetInCU: 0x1FB27, offset: 0x1FB27, size: 0x8, addend: 0x0, symName: __ZNSt3__116reverse_iteratorIPP4NodeEppB7v160006Ev, symObjAddr: 0xB0B8, symBinAddr: 0x10000BBB4, symSize: 0x20 }
  - { offsetInCU: 0x1FB53, offset: 0x1FB53, size: 0x8, addend: 0x0, symName: __ZNSt3__119__to_address_helperINS_16reverse_iteratorIPP4NodeEEvE6__callB7v160006ERKS5_, symObjAddr: 0xB150, symBinAddr: 0x10000BC4C, symSize: 0x4C }
  - { offsetInCU: 0x1FB76, offset: 0x1FB76, size: 0x8, addend: 0x0, symName: __ZNKSt3__116reverse_iteratorIPP4NodeEptB7v160006Ev, symObjAddr: 0xB19C, symBinAddr: 0x10000BC98, symSize: 0x24 }
  - { offsetInCU: 0x1FBC2, offset: 0x1FBC2, size: 0x8, addend: 0x0, symName: __ZNKSt3__111__move_loopINS_17_ClassicAlgPolicyEEclB7v160006INS_16reverse_iteratorIPP4NodeEES8_S8_EENS_4pairIT_T1_EESA_T0_SB_, symObjAddr: 0xB450, symBinAddr: 0x10000BF4C, symSize: 0xA0 }
  - { offsetInCU: 0x1FC33, offset: 0x1FC33, size: 0x8, addend: 0x0, symName: __ZNSt3__18_IterOpsINS_17_ClassicAlgPolicyEE11__iter_moveB7v160006IRNS_16reverse_iteratorIPP4NodeEEEENS_9enable_ifIXsr12is_referenceIDTdeclsr3stdE7declvalIRT_EEEEE5valueEDTclsr3stdE4movedeclsr3stdE7declvalISC_EEEEE4typeEOSB_, symObjAddr: 0xB650, symBinAddr: 0x10000C14C, symSize: 0x28 }
  - { offsetInCU: 0x1FC5F, offset: 0x1FC5F, size: 0x8, addend: 0x0, symName: __ZNSt3__18_IterOpsINS_17_ClassicAlgPolicyEE25__validate_iter_referenceB7v160006IRNS_16reverse_iteratorIPP4NodeEEEEvv, symObjAddr: 0xB678, symBinAddr: 0x10000C174, symSize: 0x4 }
  - { offsetInCU: 0x1FC7D, offset: 0x1FC7D, size: 0x8, addend: 0x0, symName: __ZNSt3__118__unwrap_iter_implINS_16reverse_iteratorIPP4NodeEELb0EE8__unwrapB7v160006ES5_, symObjAddr: 0xB67C, symBinAddr: 0x10000C178, symSize: 0x24 }
  - { offsetInCU: 0x1FCA0, offset: 0x1FCA0, size: 0x8, addend: 0x0, symName: __ZNSt3__14pairINS_16reverse_iteratorIPP4NodeEES5_EC1B7v160006ERKS5_S8_, symObjAddr: 0xB6A0, symBinAddr: 0x10000C19C, symSize: 0x3C }
  - { offsetInCU: 0x1FCE6, offset: 0x1FCE6, size: 0x8, addend: 0x0, symName: __ZNSt3__14pairINS_16reverse_iteratorIPP4NodeEES5_EC2B7v160006ERKS5_S8_, symObjAddr: 0xB6DC, symBinAddr: 0x10000C1D8, symSize: 0x34 }
  - { offsetInCU: 0x1FD2C, offset: 0x1FD2C, size: 0x8, addend: 0x0, symName: __ZNSt3__118__unwrap_iter_implINS_16reverse_iteratorIPP4NodeEELb0EE8__rewrapB7v160006ES5_S5_, symObjAddr: 0xB710, symBinAddr: 0x10000C20C, symSize: 0x2C }
  - { offsetInCU: 0x1FD5A, offset: 0x1FD5A, size: 0x8, addend: 0x0, symName: __ZNSt3__116reverse_iteratorIPP4NodeEC2B7v160006ES3_, symObjAddr: 0xB73C, symBinAddr: 0x10000C238, symSize: 0x28 }
  - { offsetInCU: 0x1FD92, offset: 0x1FD92, size: 0x8, addend: 0x0, symName: __ZNSt3__114__split_bufferIP4NodeRNS_9allocatorIS2_EEED2Ev, symObjAddr: 0xB764, symBinAddr: 0x10000C260, symSize: 0x80 }
  - { offsetInCU: 0x1FDBE, offset: 0x1FDBE, size: 0x8, addend: 0x0, symName: __ZNSt3__114__split_bufferIP4NodeRNS_9allocatorIS2_EEE5clearB7v160006Ev, symObjAddr: 0xB7E4, symBinAddr: 0x10000C2E0, symSize: 0x28 }
  - { offsetInCU: 0x1FDE4, offset: 0x1FDE4, size: 0x8, addend: 0x0, symName: __ZNKSt3__114__split_bufferIP4NodeRNS_9allocatorIS2_EEE8capacityB7v160006Ev, symObjAddr: 0xB80C, symBinAddr: 0x10000C308, symSize: 0x40 }
  - { offsetInCU: 0x1FE0A, offset: 0x1FE0A, size: 0x8, addend: 0x0, symName: __ZNSt3__114__split_bufferIP4NodeRNS_9allocatorIS2_EEE17__destruct_at_endB7v160006EPS2_, symObjAddr: 0xB84C, symBinAddr: 0x10000C348, symSize: 0x2C }
  - { offsetInCU: 0x1FE3E, offset: 0x1FE3E, size: 0x8, addend: 0x0, symName: __ZNSt3__114__split_bufferIP4NodeRNS_9allocatorIS2_EEE17__destruct_at_endB7v160006EPS2_NS_17integral_constantIbLb0EEE, symObjAddr: 0xB878, symBinAddr: 0x10000C374, symSize: 0x94 }
  - { offsetInCU: 0x1FE7F, offset: 0x1FE7F, size: 0x8, addend: 0x0, symName: __ZNKSt3__114__split_bufferIP4NodeRNS_9allocatorIS2_EEE9__end_capB7v160006Ev, symObjAddr: 0xB90C, symBinAddr: 0x10000C408, symSize: 0x28 }
  - { offsetInCU: 0x1FEA5, offset: 0x1FEA5, size: 0x8, addend: 0x0, symName: __ZNKSt3__117__compressed_pairIPP4NodeRNS_9allocatorIS2_EEE5firstB7v160006Ev, symObjAddr: 0xB934, symBinAddr: 0x10000C430, symSize: 0x24 }
  - { offsetInCU: 0x1FECB, offset: 0x1FECB, size: 0x8, addend: 0x0, symName: __ZNKSt3__111__wrap_iterIPP4NodeE4baseB7v160006Ev, symObjAddr: 0xBB70, symBinAddr: 0x10000C66C, symSize: 0x18 }
  - { offsetInCU: 0x1FEF1, offset: 0x1FEF1, size: 0x8, addend: 0x0, symName: __ZNKSt3__111__wrap_iterIPP4NodeEplB7v160006El, symObjAddr: 0xBB88, symBinAddr: 0x10000C684, symSize: 0x3C }
  - { offsetInCU: 0x1FF33, offset: 0x1FF33, size: 0x8, addend: 0x0, symName: __ZN4compclEP4NodeS1_, symObjAddr: 0xBBC4, symBinAddr: 0x10000C6C0, symSize: 0x34 }
  - { offsetInCU: 0x1FF75, offset: 0x1FF75, size: 0x8, addend: 0x0, symName: __ZNKSt3__111__wrap_iterIPP4NodeEdeB7v160006Ev, symObjAddr: 0xBBF8, symBinAddr: 0x10000C6F4, symSize: 0x18 }
  - { offsetInCU: 0x1FF9B, offset: 0x1FF9B, size: 0x8, addend: 0x0, symName: __ZNSt3__111__wrap_iterIPP4NodeEmmB7v160006Ev, symObjAddr: 0xBC10, symBinAddr: 0x10000C70C, symSize: 0x20 }
  - { offsetInCU: 0x1FFC1, offset: 0x1FFC1, size: 0x8, addend: 0x0, symName: __ZNSt3__18_IterOpsINS_17_ClassicAlgPolicyEE11__iter_moveB7v160006IRNS_11__wrap_iterIPP4NodeEEEENS_9enable_ifIXsr12is_referenceIDTdeclsr3stdE7declvalIRT_EEEEE5valueEDTclsr3stdE4movedeclsr3stdE7declvalISC_EEEEE4typeEOSB_, symObjAddr: 0xBC30, symBinAddr: 0x10000C72C, symSize: 0x28 }
  - { offsetInCU: 0x1FFED, offset: 0x1FFED, size: 0x8, addend: 0x0, symName: __ZNSt3__111__wrap_iterIPP4NodeEpLB7v160006El, symObjAddr: 0xBC58, symBinAddr: 0x10000C754, symSize: 0x28 }
  - { offsetInCU: 0x20021, offset: 0x20021, size: 0x8, addend: 0x0, symName: __ZNSt3__18_IterOpsINS_17_ClassicAlgPolicyEE25__validate_iter_referenceB7v160006IRNS_11__wrap_iterIPP4NodeEEEEvv, symObjAddr: 0xBC80, symBinAddr: 0x10000C77C, symSize: 0x4 }
  - { offsetInCU: 0x2003F, offset: 0x2003F, size: 0x8, addend: 0x0, symName: __ZNSt3__16vectorIP4NodeNS_9allocatorIS2_EEE11__make_iterB7v160006EPS2_, symObjAddr: 0xBC84, symBinAddr: 0x10000C780, symSize: 0x34 }
  - { offsetInCU: 0x20074, offset: 0x20074, size: 0x8, addend: 0x0, symName: __ZNSt3__111__wrap_iterIPP4NodeEC1B7v160006EPKvS3_, symObjAddr: 0xBCB8, symBinAddr: 0x10000C7B4, symSize: 0x3C }
  - { offsetInCU: 0x200BA, offset: 0x200BA, size: 0x8, addend: 0x0, symName: __ZNSt3__111__wrap_iterIPP4NodeEC2B7v160006EPKvS3_, symObjAddr: 0xBCF4, symBinAddr: 0x10000C7F0, symSize: 0x24 }
  - { offsetInCU: 0x20100, offset: 0x20100, size: 0x8, addend: 0x0, symName: __ZNKSt3__16vectorIP4NodeNS_9allocatorIS2_EEE5frontB7v160006Ev, symObjAddr: 0xBD18, symBinAddr: 0x10000C814, symSize: 0x18 }
  - { offsetInCU: 0x20126, offset: 0x20126, size: 0x8, addend: 0x0, symName: __ZNSt3__16vectorIP4NodeNS_9allocatorIS2_EEE8pop_backEv, symObjAddr: 0xBD88, symBinAddr: 0x10000C884, symSize: 0x2C }
  - { offsetInCU: 0x2014E, offset: 0x2014E, size: 0x8, addend: 0x0, symName: __ZNSt3__111__wrap_iterIPP4NodeEppB7v160006Ev, symObjAddr: 0xC094, symBinAddr: 0x10000CB90, symSize: 0x20 }
  - { offsetInCU: 0x20174, offset: 0x20174, size: 0x8, addend: 0x0, symName: __ZNSt3__16vectorIP4NodeNS_9allocatorIS2_EEE17__destruct_at_endB7v160006EPS2_, symObjAddr: 0xC0B4, symBinAddr: 0x10000CBB0, symSize: 0x88 }
  - { offsetInCU: 0x201B8, offset: 0x201B8, size: 0x8, addend: 0x0, symName: __ZNSt3__16vectorIP4NodeNS_9allocatorIS2_EEE27__invalidate_iterators_pastB7v160006EPS2_, symObjAddr: 0xC13C, symBinAddr: 0x10000CC38, symSize: 0x14 }
  - { offsetInCU: 0x201EF, offset: 0x201EF, size: 0x8, addend: 0x0, symName: __ZNKSt3__16vectorIP4NodeNS_9allocatorIS2_EEE17__annotate_shrinkB7v160006Em, symObjAddr: 0xC150, symBinAddr: 0x10000CC4C, symSize: 0xB4 }
  - { offsetInCU: 0x20224, offset: 0x20224, size: 0x8, addend: 0x0, symName: __ZNSt3__113unordered_mapIcNS_12basic_stringIcNS_11char_traitsIcEENS_9allocatorIcEEEENS_4hashIcEENS_8equal_toIcEENS4_INS_4pairIKcS6_EEEEEC2B7v160006Ev, symObjAddr: 0xC204, symBinAddr: 0x10000CD00, symSize: 0x64 }
  - { offsetInCU: 0x2024E, offset: 0x2024E, size: 0x8, addend: 0x0, symName: __ZNSt3__112__hash_tableINS_17__hash_value_typeIcNS_12basic_stringIcNS_11char_traitsIcEENS_9allocatorIcEEEEEENS_22__unordered_map_hasherIcS8_NS_4hashIcEENS_8equal_toIcEELb1EEENS_21__unordered_map_equalIcS8_SD_SB_Lb1EEENS5_IS8_EEEC1Ev, symObjAddr: 0xC268, symBinAddr: 0x10000CD64, symSize: 0x2C }
  - { offsetInCU: 0x2027A, offset: 0x2027A, size: 0x8, addend: 0x0, symName: __ZNSt3__112__hash_tableINS_17__hash_value_typeIcNS_12basic_stringIcNS_11char_traitsIcEENS_9allocatorIcEEEEEENS_22__unordered_map_hasherIcS8_NS_4hashIcEENS_8equal_toIcEELb1EEENS_21__unordered_map_equalIcS8_SD_SB_Lb1EEENS5_IS8_EEED1Ev, symObjAddr: 0xC2A4, symBinAddr: 0x10000CDA0, symSize: 0x2C }
  - { offsetInCU: 0x202A6, offset: 0x202A6, size: 0x8, addend: 0x0, symName: __ZNSt3__112__hash_tableINS_17__hash_value_typeIcNS_12basic_stringIcNS_11char_traitsIcEENS_9allocatorIcEEEEEENS_22__unordered_map_hasherIcS8_NS_4hashIcEENS_8equal_toIcEELb1EEENS_21__unordered_map_equalIcS8_SD_SB_Lb1EEENS5_IS8_EEEC2Ev, symObjAddr: 0xC2D0, symBinAddr: 0x10000CDCC, symSize: 0xA4 }
  - { offsetInCU: 0x202D2, offset: 0x202D2, size: 0x8, addend: 0x0, symName: __ZNSt3__110unique_ptrIA_PNS_16__hash_node_baseIPNS_11__hash_nodeINS_17__hash_value_typeIcNS_12basic_stringIcNS_11char_traitsIcEENS_9allocatorIcEEEEEEPvEEEENS_25__bucket_list_deallocatorINS7_ISF_EEEEEC1B7v160006ILb1EvEEv, symObjAddr: 0xC374, symBinAddr: 0x10000CE70, symSize: 0x2C }
  - { offsetInCU: 0x20307, offset: 0x20307, size: 0x8, addend: 0x0, symName: __ZNSt3__117__compressed_pairINS_16__hash_node_baseIPNS_11__hash_nodeINS_17__hash_value_typeIcNS_12basic_stringIcNS_11char_traitsIcEENS_9allocatorIcEEEEEEPvEEEENS7_ISC_EEEC1B7v160006ILb1EvEEv, symObjAddr: 0xC3A0, symBinAddr: 0x10000CE9C, symSize: 0x2C }
  - { offsetInCU: 0x2033C, offset: 0x2033C, size: 0x8, addend: 0x0, symName: __ZNSt3__117__compressed_pairImNS_22__unordered_map_hasherIcNS_17__hash_value_typeIcNS_12basic_stringIcNS_11char_traitsIcEENS_9allocatorIcEEEEEENS_4hashIcEENS_8equal_toIcEELb1EEEEC1B7v160006IiNS_18__default_init_tagEEEOT_OT0_, symObjAddr: 0xC3CC, symBinAddr: 0x10000CEC8, symSize: 0x3C }
  - { offsetInCU: 0x20394, offset: 0x20394, size: 0x8, addend: 0x0, symName: __ZNSt3__117__compressed_pairIfNS_21__unordered_map_equalIcNS_17__hash_value_typeIcNS_12basic_stringIcNS_11char_traitsIcEENS_9allocatorIcEEEEEENS_8equal_toIcEENS_4hashIcEELb1EEEEC1B7v160006IfNS_18__default_init_tagEEEOT_OT0_, symObjAddr: 0xC408, symBinAddr: 0x10000CF04, symSize: 0x3C }
  - { offsetInCU: 0x203EC, offset: 0x203EC, size: 0x8, addend: 0x0, symName: __ZNSt3__110unique_ptrIA_PNS_16__hash_node_baseIPNS_11__hash_nodeINS_17__hash_value_typeIcNS_12basic_stringIcNS_11char_traitsIcEENS_9allocatorIcEEEEEEPvEEEENS_25__bucket_list_deallocatorINS7_ISF_EEEEED1B7v160006Ev, symObjAddr: 0xC444, symBinAddr: 0x10000CF40, symSize: 0x2C }
  - { offsetInCU: 0x20416, offset: 0x20416, size: 0x8, addend: 0x0, symName: __ZNSt3__110unique_ptrIA_PNS_16__hash_node_baseIPNS_11__hash_nodeINS_17__hash_value_typeIcNS_12basic_stringIcNS_11char_traitsIcEENS_9allocatorIcEEEEEEPvEEEENS_25__bucket_list_deallocatorINS7_ISF_EEEEEC2B7v160006ILb1EvEEv, symObjAddr: 0xC470, symBinAddr: 0x10000CF6C, symSize: 0x50 }
  - { offsetInCU: 0x2044B, offset: 0x2044B, size: 0x8, addend: 0x0, symName: __ZNSt3__117__compressed_pairIPPNS_16__hash_node_baseIPNS_11__hash_nodeINS_17__hash_value_typeIcNS_12basic_stringIcNS_11char_traitsIcEENS_9allocatorIcEEEEEEPvEEEENS_25__bucket_list_deallocatorINS7_ISF_EEEEEC1B7v160006INS_16__value_init_tagESM_EEOT_OT0_, symObjAddr: 0xC4C0, symBinAddr: 0x10000CFBC, symSize: 0x3C }
  - { offsetInCU: 0x204A3, offset: 0x204A3, size: 0x8, addend: 0x0, symName: __ZNSt3__117__compressed_pairIPPNS_16__hash_node_baseIPNS_11__hash_nodeINS_17__hash_value_typeIcNS_12basic_stringIcNS_11char_traitsIcEENS_9allocatorIcEEEEEEPvEEEENS_25__bucket_list_deallocatorINS7_ISF_EEEEEC2B7v160006INS_16__value_init_tagESM_EEOT_OT0_, symObjAddr: 0xC4FC, symBinAddr: 0x10000CFF8, symSize: 0x40 }
  - { offsetInCU: 0x204FB, offset: 0x204FB, size: 0x8, addend: 0x0, symName: __ZNSt3__122__compressed_pair_elemIPPNS_16__hash_node_baseIPNS_11__hash_nodeINS_17__hash_value_typeIcNS_12basic_stringIcNS_11char_traitsIcEENS_9allocatorIcEEEEEEPvEEEELi0ELb0EEC2B7v160006ENS_16__value_init_tagE, symObjAddr: 0xC53C, symBinAddr: 0x10000D038, symSize: 0x18 }
  - { offsetInCU: 0x20530, offset: 0x20530, size: 0x8, addend: 0x0, symName: __ZNSt3__122__compressed_pair_elemINS_25__bucket_list_deallocatorINS_9allocatorIPNS_16__hash_node_baseIPNS_11__hash_nodeINS_17__hash_value_typeIcNS_12basic_stringIcNS_11char_traitsIcEENS2_IcEEEEEEPvEEEEEEEELi1ELb0EEC2B7v160006ENS_16__value_init_tagE, symObjAddr: 0xC554, symBinAddr: 0x10000D050, symSize: 0x2C }
  - { offsetInCU: 0x20565, offset: 0x20565, size: 0x8, addend: 0x0, symName: __ZNSt3__125__bucket_list_deallocatorINS_9allocatorIPNS_16__hash_node_baseIPNS_11__hash_nodeINS_17__hash_value_typeIcNS_12basic_stringIcNS_11char_traitsIcEENS1_IcEEEEEEPvEEEEEEEC1B7v160006Ev, symObjAddr: 0xC580, symBinAddr: 0x10000D07C, symSize: 0x2C }
  - { offsetInCU: 0x2058F, offset: 0x2058F, size: 0x8, addend: 0x0, symName: __ZNSt3__125__bucket_list_deallocatorINS_9allocatorIPNS_16__hash_node_baseIPNS_11__hash_nodeINS_17__hash_value_typeIcNS_12basic_stringIcNS_11char_traitsIcEENS1_IcEEEEEEPvEEEEEEEC2B7v160006Ev, symObjAddr: 0xC5AC, symBinAddr: 0x10000D0A8, symSize: 0x38 }
  - { offsetInCU: 0x205B9, offset: 0x205B9, size: 0x8, addend: 0x0, symName: __ZNSt3__117__compressed_pairImNS_9allocatorIPNS_16__hash_node_baseIPNS_11__hash_nodeINS_17__hash_value_typeIcNS_12basic_stringIcNS_11char_traitsIcEENS1_IcEEEEEEPvEEEEEEEC1B7v160006IiNS_18__default_init_tagEEEOT_OT0_, symObjAddr: 0xC5E4, symBinAddr: 0x10000D0E0, symSize: 0x3C }
  - { offsetInCU: 0x20611, offset: 0x20611, size: 0x8, addend: 0x0, symName: __ZNSt3__117__compressed_pairImNS_9allocatorIPNS_16__hash_node_baseIPNS_11__hash_nodeINS_17__hash_value_typeIcNS_12basic_stringIcNS_11char_traitsIcEENS1_IcEEEEEEPvEEEEEEEC2B7v160006IiNS_18__default_init_tagEEEOT_OT0_, symObjAddr: 0xC620, symBinAddr: 0x10000D11C, symSize: 0x40 }
  - { offsetInCU: 0x20669, offset: 0x20669, size: 0x8, addend: 0x0, symName: __ZNSt3__122__compressed_pair_elemINS_9allocatorIPNS_16__hash_node_baseIPNS_11__hash_nodeINS_17__hash_value_typeIcNS_12basic_stringIcNS_11char_traitsIcEENS1_IcEEEEEEPvEEEEEELi1ELb1EEC2B7v160006ENS_18__default_init_tagE, symObjAddr: 0xC660, symBinAddr: 0x10000D15C, symSize: 0x2C }
  - { offsetInCU: 0x2069E, offset: 0x2069E, size: 0x8, addend: 0x0, symName: __ZNSt3__19allocatorIPNS_16__hash_node_baseIPNS_11__hash_nodeINS_17__hash_value_typeIcNS_12basic_stringIcNS_11char_traitsIcEENS0_IcEEEEEEPvEEEEEC2B7v160006Ev, symObjAddr: 0xC68C, symBinAddr: 0x10000D188, symSize: 0x2C }
  - { offsetInCU: 0x206C8, offset: 0x206C8, size: 0x8, addend: 0x0, symName: __ZNSt3__116__non_trivial_ifILb1ENS_9allocatorIPNS_16__hash_node_baseIPNS_11__hash_nodeINS_17__hash_value_typeIcNS_12basic_stringIcNS_11char_traitsIcEENS1_IcEEEEEEPvEEEEEEEC2B7v160006Ev, symObjAddr: 0xC6B8, symBinAddr: 0x10000D1B4, symSize: 0x14 }
  - { offsetInCU: 0x206F2, offset: 0x206F2, size: 0x8, addend: 0x0, symName: __ZNSt3__117__compressed_pairINS_16__hash_node_baseIPNS_11__hash_nodeINS_17__hash_value_typeIcNS_12basic_stringIcNS_11char_traitsIcEENS_9allocatorIcEEEEEEPvEEEENS7_ISC_EEEC2B7v160006ILb1EvEEv, symObjAddr: 0xC6CC, symBinAddr: 0x10000D1C8, symSize: 0x34 }
  - { offsetInCU: 0x20727, offset: 0x20727, size: 0x8, addend: 0x0, symName: __ZNSt3__122__compressed_pair_elemINS_16__hash_node_baseIPNS_11__hash_nodeINS_17__hash_value_typeIcNS_12basic_stringIcNS_11char_traitsIcEENS_9allocatorIcEEEEEEPvEEEELi0ELb0EEC2B7v160006ENS_16__value_init_tagE, symObjAddr: 0xC700, symBinAddr: 0x10000D1FC, symSize: 0x2C }
  - { offsetInCU: 0x2075C, offset: 0x2075C, size: 0x8, addend: 0x0, symName: __ZNSt3__122__compressed_pair_elemINS_9allocatorINS_11__hash_nodeINS_17__hash_value_typeIcNS_12basic_stringIcNS_11char_traitsIcEENS1_IcEEEEEEPvEEEELi1ELb1EEC2B7v160006ENS_16__value_init_tagE, symObjAddr: 0xC72C, symBinAddr: 0x10000D228, symSize: 0x2C }
  - { offsetInCU: 0x20791, offset: 0x20791, size: 0x8, addend: 0x0, symName: __ZNSt3__116__hash_node_baseIPNS_11__hash_nodeINS_17__hash_value_typeIcNS_12basic_stringIcNS_11char_traitsIcEENS_9allocatorIcEEEEEEPvEEEC1B7v160006Ev, symObjAddr: 0xC758, symBinAddr: 0x10000D254, symSize: 0x2C }
  - { offsetInCU: 0x207BB, offset: 0x207BB, size: 0x8, addend: 0x0, symName: __ZNSt3__116__hash_node_baseIPNS_11__hash_nodeINS_17__hash_value_typeIcNS_12basic_stringIcNS_11char_traitsIcEENS_9allocatorIcEEEEEEPvEEEC2B7v160006Ev, symObjAddr: 0xC784, symBinAddr: 0x10000D280, symSize: 0x18 }
  - { offsetInCU: 0x207E5, offset: 0x207E5, size: 0x8, addend: 0x0, symName: __ZNSt3__19allocatorINS_11__hash_nodeINS_17__hash_value_typeIcNS_12basic_stringIcNS_11char_traitsIcEENS0_IcEEEEEEPvEEEC2B7v160006Ev, symObjAddr: 0xC79C, symBinAddr: 0x10000D298, symSize: 0x2C }
  - { offsetInCU: 0x2080F, offset: 0x2080F, size: 0x8, addend: 0x0, symName: __ZNSt3__116__non_trivial_ifILb1ENS_9allocatorINS_11__hash_nodeINS_17__hash_value_typeIcNS_12basic_stringIcNS_11char_traitsIcEENS1_IcEEEEEEPvEEEEEC2B7v160006Ev, symObjAddr: 0xC7C8, symBinAddr: 0x10000D2C4, symSize: 0x14 }
  - { offsetInCU: 0x20839, offset: 0x20839, size: 0x8, addend: 0x0, symName: __ZNSt3__117__compressed_pairImNS_22__unordered_map_hasherIcNS_17__hash_value_typeIcNS_12basic_stringIcNS_11char_traitsIcEENS_9allocatorIcEEEEEENS_4hashIcEENS_8equal_toIcEELb1EEEEC2B7v160006IiNS_18__default_init_tagEEEOT_OT0_, symObjAddr: 0xC7DC, symBinAddr: 0x10000D2D8, symSize: 0x40 }
  - { offsetInCU: 0x20891, offset: 0x20891, size: 0x8, addend: 0x0, symName: __ZNSt3__122__compressed_pair_elemINS_22__unordered_map_hasherIcNS_17__hash_value_typeIcNS_12basic_stringIcNS_11char_traitsIcEENS_9allocatorIcEEEEEENS_4hashIcEENS_8equal_toIcEELb1EEELi1ELb1EEC2B7v160006ENS_18__default_init_tagE, symObjAddr: 0xC81C, symBinAddr: 0x10000D318, symSize: 0x2C }
  - { offsetInCU: 0x208C6, offset: 0x208C6, size: 0x8, addend: 0x0, symName: __ZNSt3__122__unordered_map_hasherIcNS_17__hash_value_typeIcNS_12basic_stringIcNS_11char_traitsIcEENS_9allocatorIcEEEEEENS_4hashIcEENS_8equal_toIcEELb1EEC2B7v160006Ev, symObjAddr: 0xC848, symBinAddr: 0x10000D344, symSize: 0x14 }
  - { offsetInCU: 0x208F0, offset: 0x208F0, size: 0x8, addend: 0x0, symName: __ZNSt3__117__compressed_pairIfNS_21__unordered_map_equalIcNS_17__hash_value_typeIcNS_12basic_stringIcNS_11char_traitsIcEENS_9allocatorIcEEEEEENS_8equal_toIcEENS_4hashIcEELb1EEEEC2B7v160006IfNS_18__default_init_tagEEEOT_OT0_, symObjAddr: 0xC85C, symBinAddr: 0x10000D358, symSize: 0x40 }
  - { offsetInCU: 0x20948, offset: 0x20948, size: 0x8, addend: 0x0, symName: __ZNSt3__122__compressed_pair_elemINS_21__unordered_map_equalIcNS_17__hash_value_typeIcNS_12basic_stringIcNS_11char_traitsIcEENS_9allocatorIcEEEEEENS_8equal_toIcEENS_4hashIcEELb1EEELi1ELb1EEC2B7v160006ENS_18__default_init_tagE, symObjAddr: 0xC89C, symBinAddr: 0x10000D398, symSize: 0x2C }
  - { offsetInCU: 0x2097D, offset: 0x2097D, size: 0x8, addend: 0x0, symName: __ZNSt3__121__unordered_map_equalIcNS_17__hash_value_typeIcNS_12basic_stringIcNS_11char_traitsIcEENS_9allocatorIcEEEEEENS_8equal_toIcEENS_4hashIcEELb1EEC2B7v160006Ev, symObjAddr: 0xC8C8, symBinAddr: 0x10000D3C4, symSize: 0x14 }
  - { offsetInCU: 0x209A7, offset: 0x209A7, size: 0x8, addend: 0x0, symName: __ZNSt3__110unique_ptrIA_PNS_16__hash_node_baseIPNS_11__hash_nodeINS_17__hash_value_typeIcNS_12basic_stringIcNS_11char_traitsIcEENS_9allocatorIcEEEEEEPvEEEENS_25__bucket_list_deallocatorINS7_ISF_EEEEED2B7v160006Ev, symObjAddr: 0xC8DC, symBinAddr: 0x10000D3D8, symSize: 0x30 }
  - { offsetInCU: 0x209D1, offset: 0x209D1, size: 0x8, addend: 0x0, symName: __ZNSt3__110unique_ptrIA_PNS_16__hash_node_baseIPNS_11__hash_nodeINS_17__hash_value_typeIcNS_12basic_stringIcNS_11char_traitsIcEENS_9allocatorIcEEEEEEPvEEEENS_25__bucket_list_deallocatorINS7_ISF_EEEEE5resetB7v160006EDn, symObjAddr: 0xC90C, symBinAddr: 0x10000D408, symSize: 0x6C }
  - { offsetInCU: 0x20A11, offset: 0x20A11, size: 0x8, addend: 0x0, symName: __ZNSt3__112__hash_tableINS_17__hash_value_typeIcNS_12basic_stringIcNS_11char_traitsIcEENS_9allocatorIcEEEEEENS_22__unordered_map_hasherIcS8_NS_4hashIcEENS_8equal_toIcEELb1EEENS_21__unordered_map_equalIcS8_SD_SB_Lb1EEENS5_IS8_EEED2Ev, symObjAddr: 0xC978, symBinAddr: 0x10000D474, symSize: 0x80 }
  - { offsetInCU: 0x20A3D, offset: 0x20A3D, size: 0x8, addend: 0x0, symName: __ZNSt3__112__hash_tableINS_17__hash_value_typeIcNS_12basic_stringIcNS_11char_traitsIcEENS_9allocatorIcEEEEEENS_22__unordered_map_hasherIcS8_NS_4hashIcEENS_8equal_toIcEELb1EEENS_21__unordered_map_equalIcS8_SD_SB_Lb1EEENS5_IS8_EEE17__deallocate_nodeEPNS_16__hash_node_baseIPNS_11__hash_nodeIS8_PvEEEE, symObjAddr: 0xC9F8, symBinAddr: 0x10000D4F4, symSize: 0xBC }
  - { offsetInCU: 0x20AA7, offset: 0x20AA7, size: 0x8, addend: 0x0, symName: __ZNSt3__116allocator_traitsINS_9allocatorINS_11__hash_nodeINS_17__hash_value_typeIcNS_12basic_stringIcNS_11char_traitsIcEENS1_IcEEEEEEPvEEEEE7destroyB7v160006INS_4pairIKcS8_EEvvEEvRSC_PT_, symObjAddr: 0xCAC4, symBinAddr: 0x10000D5C0, symSize: 0x28 }
  - { offsetInCU: 0x20AE1, offset: 0x20AE1, size: 0x8, addend: 0x0, symName: __ZNSt3__122__hash_key_value_typesINS_17__hash_value_typeIcNS_12basic_stringIcNS_11char_traitsIcEENS_9allocatorIcEEEEEEE9__get_ptrB7v160006ERS8_, symObjAddr: 0xCAEC, symBinAddr: 0x10000D5E8, symSize: 0x24 }
  - { offsetInCU: 0x20B04, offset: 0x20B04, size: 0x8, addend: 0x0, symName: __ZNSt3__14pairIKcNS_12basic_stringIcNS_11char_traitsIcEENS_9allocatorIcEEEEED1Ev, symObjAddr: 0xCB10, symBinAddr: 0x10000D60C, symSize: 0x2C }
  - { offsetInCU: 0x20B30, offset: 0x20B30, size: 0x8, addend: 0x0, symName: __ZNSt3__14pairIKcNS_12basic_stringIcNS_11char_traitsIcEENS_9allocatorIcEEEEED2Ev, symObjAddr: 0xCB3C, symBinAddr: 0x10000D638, symSize: 0x30 }
  - { offsetInCU: 0x20B5C, offset: 0x20B5C, size: 0x8, addend: 0x0, symName: __ZNSt3__113unordered_mapIcNS_12basic_stringIcNS_11char_traitsIcEENS_9allocatorIcEEEENS_4hashIcEENS_8equal_toIcEENS4_INS_4pairIKcS6_EEEEED2B7v160006Ev, symObjAddr: 0xCB6C, symBinAddr: 0x10000D668, symSize: 0x2C }
  - { offsetInCU: 0x20B86, offset: 0x20B86, size: 0x8, addend: 0x0, symName: __ZNSt3__113basic_ostreamIcNS_11char_traitsIcEEEC2B7v160006EPNS_15basic_streambufIcS2_EE, symObjAddr: 0xCB98, symBinAddr: 0x10000D694, symSize: 0x60 }
  - { offsetInCU: 0x20BCB, offset: 0x20BCB, size: 0x8, addend: 0x0, symName: __ZNSt3__112__hash_tableINS_17__hash_value_typeIcNS_12basic_stringIcNS_11char_traitsIcEENS_9allocatorIcEEEEEENS_22__unordered_map_hasherIcS8_NS_4hashIcEENS_8equal_toIcEELb1EEENS_21__unordered_map_equalIcS8_SD_SB_Lb1EEENS5_IS8_EEE5beginEv, symObjAddr: 0xCBF8, symBinAddr: 0x10000D6F4, symSize: 0x40 }
  - { offsetInCU: 0x20BF3, offset: 0x20BF3, size: 0x8, addend: 0x0, symName: __ZNSt3__115__hash_iteratorIPNS_11__hash_nodeINS_17__hash_value_typeIcNS_12basic_stringIcNS_11char_traitsIcEENS_9allocatorIcEEEEEEPvEEEppB7v160006Ev, symObjAddr: 0xCC9C, symBinAddr: 0x10000D798, symSize: 0x20 }
  - { offsetInCU: 0x20C19, offset: 0x20C19, size: 0x8, addend: 0x0, symName: __ZNKSt3__112basic_stringIcNS_11char_traitsIcEENS_9allocatorIcEEE15__get_long_sizeB7v160006Ev, symObjAddr: 0xCCBC, symBinAddr: 0x10000D7B8, symSize: 0x28 }
  - { offsetInCU: 0x20C3F, offset: 0x20C3F, size: 0x8, addend: 0x0, symName: __ZNKSt3__112basic_stringIcNS_11char_traitsIcEENS_9allocatorIcEEE16__get_short_sizeB7v160006Ev, symObjAddr: 0xCCE4, symBinAddr: 0x10000D7E0, symSize: 0x34 }
  - { offsetInCU: 0x20C65, offset: 0x20C65, size: 0x8, addend: 0x0, symName: __ZNSt3__112basic_stringIcNS_11char_traitsIcEENS_9allocatorIcEEEC2B7v160006Emc, symObjAddr: 0xCD18, symBinAddr: 0x10000D814, symSize: 0x54 }
  - { offsetInCU: 0x20CAD, offset: 0x20CAD, size: 0x8, addend: 0x0, symName: __ZNSt3__19allocatorIcEC1B7v160006Ev, symObjAddr: 0xCD6C, symBinAddr: 0x10000D868, symSize: 0x2C }
  - { offsetInCU: 0x20CD7, offset: 0x20CD7, size: 0x8, addend: 0x0, symName: __ZNSt3__16bitsetILm8EEC2B7v160006IcNS_11char_traitsIcEENS_9allocatorIcEEEERKNS_12basic_stringIT_T0_T1_EENSB_9size_typeESE_S8_S8_, symObjAddr: 0xCD98, symBinAddr: 0x10000D894, symSize: 0x218 }
  - { offsetInCU: 0x20DE2, offset: 0x20DE2, size: 0x8, addend: 0x0, symName: __ZNSt3__18__bitsetILm1ELm8EEC2Ev, symObjAddr: 0xCFB0, symBinAddr: 0x10000DAAC, symSize: 0x18 }
  - { offsetInCU: 0x20E0E, offset: 0x20E0E, size: 0x8, addend: 0x0, symName: __ZNKSt3__112basic_stringIcNS_11char_traitsIcEENS_9allocatorIcEEEixB7v160006Em, symObjAddr: 0xD02C, symBinAddr: 0x10000DB28, symSize: 0x30 }
  - { offsetInCU: 0x20E43, offset: 0x20E43, size: 0x8, addend: 0x0, symName: __ZNSt3__16bitsetILm8EEixB7v160006Em, symObjAddr: 0xD0C0, symBinAddr: 0x10000DBBC, symSize: 0x3C }
  - { offsetInCU: 0x20E78, offset: 0x20E78, size: 0x8, addend: 0x0, symName: __ZNSt3__115__bit_referenceINS_8__bitsetILm1ELm8EEELb1EEaSB7v160006Eb, symObjAddr: 0xD0FC, symBinAddr: 0x10000DBF8, symSize: 0x6C }
  - { offsetInCU: 0x20EAC, offset: 0x20EAC, size: 0x8, addend: 0x0, symName: __ZNSt3__18__bitsetILm1ELm8EE11__make_iterB7v160006Em, symObjAddr: 0xD1D4, symBinAddr: 0x10000DCD0, symSize: 0x60 }
  - { offsetInCU: 0x20EE1, offset: 0x20EE1, size: 0x8, addend: 0x0, symName: __ZNSt12out_of_rangeC1B7v160006EPKc, symObjAddr: 0xD234, symBinAddr: 0x10000DD30, symSize: 0x34 }
  - { offsetInCU: 0x20F19, offset: 0x20F19, size: 0x8, addend: 0x0, symName: __ZNSt12out_of_rangeC2B7v160006EPKc, symObjAddr: 0xD268, symBinAddr: 0x10000DD64, symSize: 0x4C }
  - { offsetInCU: 0x20F51, offset: 0x20F51, size: 0x8, addend: 0x0, symName: __ZNSt16invalid_argumentC1B7v160006EPKc, symObjAddr: 0xD2B4, symBinAddr: 0x10000DDB0, symSize: 0x34 }
  - { offsetInCU: 0x20F89, offset: 0x20F89, size: 0x8, addend: 0x0, symName: __ZNSt16invalid_argumentC2B7v160006EPKc, symObjAddr: 0xD2E8, symBinAddr: 0x10000DDE4, symSize: 0x4C }
  - { offsetInCU: 0x20FC1, offset: 0x20FC1, size: 0x8, addend: 0x0, symName: __ZNSt3__18__bitsetILm1ELm8EE10__make_refB7v160006Em, symObjAddr: 0xD334, symBinAddr: 0x10000DE30, symSize: 0x40 }
  - { offsetInCU: 0x20FF6, offset: 0x20FF6, size: 0x8, addend: 0x0, symName: __ZNSt3__115__bit_referenceINS_8__bitsetILm1ELm8EEELb1EEC1B7v160006EPmm, symObjAddr: 0xD374, symBinAddr: 0x10000DE70, symSize: 0x3C }
  - { offsetInCU: 0x2103C, offset: 0x2103C, size: 0x8, addend: 0x0, symName: __ZNSt3__115__bit_referenceINS_8__bitsetILm1ELm8EEELb1EEC2B7v160006EPmm, symObjAddr: 0xD3B0, symBinAddr: 0x10000DEAC, symSize: 0x2C }
  - { offsetInCU: 0x21082, offset: 0x21082, size: 0x8, addend: 0x0, symName: __ZNSt3__114__bit_iteratorINS_8__bitsetILm1ELm8EEELb0ELm0EEC1B7v160006ERKS3_, symObjAddr: 0xD470, symBinAddr: 0x10000DF6C, symSize: 0x34 }
  - { offsetInCU: 0x210BB, offset: 0x210BB, size: 0x8, addend: 0x0, symName: __ZNSt3__114__bit_iteratorINS_8__bitsetILm1ELm8EEELb0ELm0EEC2B7v160006ERKS3_, symObjAddr: 0xD90C, symBinAddr: 0x10000E408, symSize: 0x30 }
  - { offsetInCU: 0x210F4, offset: 0x210F4, size: 0x8, addend: 0x0, symName: __ZNSt3__114__bit_iteratorINS_8__bitsetILm1ELm8EEELb0ELm0EEC1B7v160006EPmj, symObjAddr: 0xD93C, symBinAddr: 0x10000E438, symSize: 0x3C }
  - { offsetInCU: 0x2113C, offset: 0x2113C, size: 0x8, addend: 0x0, symName: __ZNSt3__114__bit_iteratorINS_8__bitsetILm1ELm8EEELb0ELm0EEC2B7v160006EPmj, symObjAddr: 0xD978, symBinAddr: 0x10000E474, symSize: 0x2C }
  - { offsetInCU: 0x21184, offset: 0x21184, size: 0x8, addend: 0x0, symName: __ZNKSt3__18__bitsetILm1ELm8EE8to_ulongEv, symObjAddr: 0xD9A4, symBinAddr: 0x10000E4A0, symSize: 0x18 }
  - { offsetInCU: 0x211AC, offset: 0x211AC, size: 0x8, addend: 0x0, symName: __ZNKSt3__112__hash_tableINS_17__hash_value_typeINS_12basic_stringIcNS_11char_traitsIcEENS_9allocatorIcEEEEcEENS_22__unordered_map_hasherIS7_S8_NS_4hashIS7_EENS_8equal_toIS7_EELb1EEENS_21__unordered_map_equalIS7_S8_SD_SB_Lb1EEENS5_IS8_EEE14__count_uniqueIS7_EEmRKT_, symObjAddr: 0xD9BC, symBinAddr: 0x10000E4B8, symSize: 0x64 }
  - { offsetInCU: 0x211EC, offset: 0x211EC, size: 0x8, addend: 0x0, symName: __ZNKSt3__112__hash_tableINS_17__hash_value_typeINS_12basic_stringIcNS_11char_traitsIcEENS_9allocatorIcEEEEcEENS_22__unordered_map_hasherIS7_S8_NS_4hashIS7_EENS_8equal_toIS7_EELb1EEENS_21__unordered_map_equalIS7_S8_SD_SB_Lb1EEENS5_IS8_EEE4findIS7_EENS_21__hash_const_iteratorIPNS_11__hash_nodeIS8_PvEEEERKT_, symObjAddr: 0xDA54, symBinAddr: 0x10000E550, symSize: 0x1BC }
  - { offsetInCU: 0x21276, offset: 0x21276, size: 0x8, addend: 0x0, symName: __ZNKSt3__112__hash_tableINS_17__hash_value_typeINS_12basic_stringIcNS_11char_traitsIcEENS_9allocatorIcEEEEcEENS_22__unordered_map_hasherIS7_S8_NS_4hashIS7_EENS_8equal_toIS7_EELb1EEENS_21__unordered_map_equalIS7_S8_SD_SB_Lb1EEENS5_IS8_EEE3endEv, symObjAddr: 0xDC10, symBinAddr: 0x10000E70C, symSize: 0x30 }
  - { offsetInCU: 0x2129E, offset: 0x2129E, size: 0x8, addend: 0x0, symName: __ZNKSt3__112__hash_tableINS_17__hash_value_typeINS_12basic_stringIcNS_11char_traitsIcEENS_9allocatorIcEEEEcEENS_22__unordered_map_hasherIS7_S8_NS_4hashIS7_EENS_8equal_toIS7_EELb1EEENS_21__unordered_map_equalIS7_S8_SD_SB_Lb1EEENS5_IS8_EEE13hash_functionB7v160006Ev, symObjAddr: 0xDC70, symBinAddr: 0x10000E76C, symSize: 0x28 }
  - { offsetInCU: 0x212C4, offset: 0x212C4, size: 0x8, addend: 0x0, symName: __ZNKSt3__122__unordered_map_hasherINS_12basic_stringIcNS_11char_traitsIcEENS_9allocatorIcEEEENS_17__hash_value_typeIS6_cEENS_4hashIS6_EENS_8equal_toIS6_EELb1EEclB7v160006ERKS6_, symObjAddr: 0xDC98, symBinAddr: 0x10000E794, symSize: 0x2C }
  - { offsetInCU: 0x212F9, offset: 0x212F9, size: 0x8, addend: 0x0, symName: __ZNKSt3__112__hash_tableINS_17__hash_value_typeINS_12basic_stringIcNS_11char_traitsIcEENS_9allocatorIcEEEEcEENS_22__unordered_map_hasherIS7_S8_NS_4hashIS7_EENS_8equal_toIS7_EELb1EEENS_21__unordered_map_equalIS7_S8_SD_SB_Lb1EEENS5_IS8_EEE12bucket_countB7v160006Ev, symObjAddr: 0xDCC4, symBinAddr: 0x10000E7C0, symSize: 0x28 }
  - { offsetInCU: 0x2131F, offset: 0x2131F, size: 0x8, addend: 0x0, symName: __ZNKSt3__110unique_ptrIA_PNS_16__hash_node_baseIPNS_11__hash_nodeINS_17__hash_value_typeINS_12basic_stringIcNS_11char_traitsIcEENS_9allocatorIcEEEEcEEPvEEEENS_25__bucket_list_deallocatorINS7_ISF_EEEEEixB7v160006Em, symObjAddr: 0xDCEC, symBinAddr: 0x10000E7E8, symSize: 0x34 }
  - { offsetInCU: 0x21354, offset: 0x21354, size: 0x8, addend: 0x0, symName: __ZNKSt3__116__hash_node_baseIPNS_11__hash_nodeINS_17__hash_value_typeINS_12basic_stringIcNS_11char_traitsIcEENS_9allocatorIcEEEEcEEPvEEE6__hashB7v160006Ev, symObjAddr: 0xDD20, symBinAddr: 0x10000E81C, symSize: 0x18 }
  - { offsetInCU: 0x2137A, offset: 0x2137A, size: 0x8, addend: 0x0, symName: __ZNKSt3__112__hash_tableINS_17__hash_value_typeINS_12basic_stringIcNS_11char_traitsIcEENS_9allocatorIcEEEEcEENS_22__unordered_map_hasherIS7_S8_NS_4hashIS7_EENS_8equal_toIS7_EELb1EEENS_21__unordered_map_equalIS7_S8_SD_SB_Lb1EEENS5_IS8_EEE6key_eqB7v160006Ev, symObjAddr: 0xDD38, symBinAddr: 0x10000E834, symSize: 0x28 }
  - { offsetInCU: 0x213A0, offset: 0x213A0, size: 0x8, addend: 0x0, symName: __ZNKSt3__121__unordered_map_equalINS_12basic_stringIcNS_11char_traitsIcEENS_9allocatorIcEEEENS_17__hash_value_typeIS6_cEENS_8equal_toIS6_EENS_4hashIS6_EELb1EEclB7v160006ERKS8_RKS6_, symObjAddr: 0xDD60, symBinAddr: 0x10000E85C, symSize: 0x48 }
  - { offsetInCU: 0x213E4, offset: 0x213E4, size: 0x8, addend: 0x0, symName: __ZNSt3__116__hash_node_baseIPNS_11__hash_nodeINS_17__hash_value_typeINS_12basic_stringIcNS_11char_traitsIcEENS_9allocatorIcEEEEcEEPvEEE8__upcastB7v160006Ev, symObjAddr: 0xDDA8, symBinAddr: 0x10000E8A4, symSize: 0x24 }
  - { offsetInCU: 0x2140A, offset: 0x2140A, size: 0x8, addend: 0x0, symName: __ZNSt3__121__hash_const_iteratorIPNS_11__hash_nodeINS_17__hash_value_typeINS_12basic_stringIcNS_11char_traitsIcEENS_9allocatorIcEEEEcEEPvEEEC1B7v160006EPNS_16__hash_node_baseISC_EEPKv, symObjAddr: 0xDDCC, symBinAddr: 0x10000E8C8, symSize: 0x3C }
  - { offsetInCU: 0x21452, offset: 0x21452, size: 0x8, addend: 0x0, symName: __ZNKSt3__117__compressed_pairImNS_22__unordered_map_hasherINS_12basic_stringIcNS_11char_traitsIcEENS_9allocatorIcEEEENS_17__hash_value_typeIS7_cEENS_4hashIS7_EENS_8equal_toIS7_EELb1EEEE6secondB7v160006Ev, symObjAddr: 0xDE08, symBinAddr: 0x10000E904, symSize: 0x24 }
  - { offsetInCU: 0x21478, offset: 0x21478, size: 0x8, addend: 0x0, symName: __ZNKSt3__122__compressed_pair_elemINS_22__unordered_map_hasherINS_12basic_stringIcNS_11char_traitsIcEENS_9allocatorIcEEEENS_17__hash_value_typeIS7_cEENS_4hashIS7_EENS_8equal_toIS7_EELb1EEELi1ELb1EE5__getB7v160006Ev, symObjAddr: 0xDE2C, symBinAddr: 0x10000E928, symSize: 0x14 }
  - { offsetInCU: 0x2149E, offset: 0x2149E, size: 0x8, addend: 0x0, symName: __ZNKSt3__113__string_hashIcNS_9allocatorIcEEEclERKNS_12basic_stringIcNS_11char_traitsIcEES2_EE, symObjAddr: 0xDE40, symBinAddr: 0x10000E93C, symSize: 0x78 }
  - { offsetInCU: 0x214D3, offset: 0x214D3, size: 0x8, addend: 0x0, symName: __ZNSt3__121__murmur2_or_cityhashImLm64EEclEPKvm, symObjAddr: 0xDEF4, symBinAddr: 0x10000E9F0, symSize: 0x410 }
  - { offsetInCU: 0x2156E, offset: 0x2156E, size: 0x8, addend: 0x0, symName: __ZNSt3__121__murmur2_or_cityhashImLm64EE18__hash_len_0_to_16EPKcm, symObjAddr: 0xE304, symBinAddr: 0x10000EE00, symSize: 0x1C0 }
  - { offsetInCU: 0x21647, offset: 0x21647, size: 0x8, addend: 0x0, symName: __ZNSt3__121__murmur2_or_cityhashImLm64EE19__hash_len_17_to_32EPKcm, symObjAddr: 0xE4C4, symBinAddr: 0x10000EFC0, symSize: 0x130 }
  - { offsetInCU: 0x216B0, offset: 0x216B0, size: 0x8, addend: 0x0, symName: __ZNSt3__121__murmur2_or_cityhashImLm64EE19__hash_len_33_to_64EPKcm, symObjAddr: 0xE5F4, symBinAddr: 0x10000F0F0, symSize: 0x2B8 }
  - { offsetInCU: 0x21762, offset: 0x21762, size: 0x8, addend: 0x0, symName: __ZNSt3__121__murmur2_or_cityhashImLm64EE13__hash_len_16Emm, symObjAddr: 0xE8CC, symBinAddr: 0x10000F3C8, symSize: 0x80 }
  - { offsetInCU: 0x217BD, offset: 0x217BD, size: 0x8, addend: 0x0, symName: __ZNSt3__121__murmur2_or_cityhashImLm64EE29__weak_hash_len_32_with_seedsEPKcmm, symObjAddr: 0xE94C, symBinAddr: 0x10000F448, symSize: 0x88 }
  - { offsetInCU: 0x217FC, offset: 0x217FC, size: 0x8, addend: 0x0, symName: __ZNSt3__121__murmur2_or_cityhashImLm64EE8__rotateEmi, symObjAddr: 0xE9D4, symBinAddr: 0x10000F4D0, symSize: 0x64 }
  - { offsetInCU: 0x2182D, offset: 0x2182D, size: 0x8, addend: 0x0, symName: __ZNSt3__14pairImmEaSB7v160006ERKS1_, symObjAddr: 0xEA38, symBinAddr: 0x10000F534, symSize: 0x30 }
  - { offsetInCU: 0x21861, offset: 0x21861, size: 0x8, addend: 0x0, symName: __ZNSt3__121__murmur2_or_cityhashImLm64EE11__shift_mixEm, symObjAddr: 0xEAA4, symBinAddr: 0x10000F5A0, symSize: 0x1C }
  - { offsetInCU: 0x21884, offset: 0x21884, size: 0x8, addend: 0x0, symName: __ZNSt3__121__murmur2_or_cityhashImLm64EE22__rotate_by_at_least_1Emi, symObjAddr: 0xEAC0, symBinAddr: 0x10000F5BC, symSize: 0x38 }
  - { offsetInCU: 0x218B5, offset: 0x218B5, size: 0x8, addend: 0x0, symName: __ZNSt3__121__murmur2_or_cityhashImLm64EE29__weak_hash_len_32_with_seedsEmmmmmm, symObjAddr: 0xEB18, symBinAddr: 0x10000F614, symSize: 0xD8 }
  - { offsetInCU: 0x2192C, offset: 0x2192C, size: 0x8, addend: 0x0, symName: __ZNSt3__14pairImmEC1B7v160006ERKmS3_, symObjAddr: 0xEBF0, symBinAddr: 0x10000F6EC, symSize: 0x3C }
  - { offsetInCU: 0x21972, offset: 0x21972, size: 0x8, addend: 0x0, symName: __ZNSt3__14pairImmEC2B7v160006ERKmS3_, symObjAddr: 0xEC2C, symBinAddr: 0x10000F728, symSize: 0x34 }
  - { offsetInCU: 0x219B8, offset: 0x219B8, size: 0x8, addend: 0x0, symName: __ZNKSt3__110unique_ptrIA_PNS_16__hash_node_baseIPNS_11__hash_nodeINS_17__hash_value_typeINS_12basic_stringIcNS_11char_traitsIcEENS_9allocatorIcEEEEcEEPvEEEENS_25__bucket_list_deallocatorINS7_ISF_EEEEE11get_deleterB7v160006Ev, symObjAddr: 0xEC60, symBinAddr: 0x10000F75C, symSize: 0x24 }
  - { offsetInCU: 0x219DE, offset: 0x219DE, size: 0x8, addend: 0x0, symName: __ZNKSt3__125__bucket_list_deallocatorINS_9allocatorIPNS_16__hash_node_baseIPNS_11__hash_nodeINS_17__hash_value_typeINS_12basic_stringIcNS_11char_traitsIcEENS1_IcEEEEcEEPvEEEEEEE4sizeB7v160006Ev, symObjAddr: 0xEC84, symBinAddr: 0x10000F780, symSize: 0x28 }
  - { offsetInCU: 0x21A04, offset: 0x21A04, size: 0x8, addend: 0x0, symName: __ZNKSt3__117__compressed_pairIPPNS_16__hash_node_baseIPNS_11__hash_nodeINS_17__hash_value_typeINS_12basic_stringIcNS_11char_traitsIcEENS_9allocatorIcEEEEcEEPvEEEENS_25__bucket_list_deallocatorINS7_ISF_EEEEE6secondB7v160006Ev, symObjAddr: 0xECAC, symBinAddr: 0x10000F7A8, symSize: 0x28 }
  - { offsetInCU: 0x21A2A, offset: 0x21A2A, size: 0x8, addend: 0x0, symName: __ZNKSt3__122__compressed_pair_elemINS_25__bucket_list_deallocatorINS_9allocatorIPNS_16__hash_node_baseIPNS_11__hash_nodeINS_17__hash_value_typeINS_12basic_stringIcNS_11char_traitsIcEENS2_IcEEEEcEEPvEEEEEEEELi1ELb0EE5__getB7v160006Ev, symObjAddr: 0xECD4, symBinAddr: 0x10000F7D0, symSize: 0x14 }
  - { offsetInCU: 0x21A50, offset: 0x21A50, size: 0x8, addend: 0x0, symName: __ZNKSt3__117__compressed_pairImNS_9allocatorIPNS_16__hash_node_baseIPNS_11__hash_nodeINS_17__hash_value_typeINS_12basic_stringIcNS_11char_traitsIcEENS1_IcEEEEcEEPvEEEEEEE5firstB7v160006Ev, symObjAddr: 0xECE8, symBinAddr: 0x10000F7E4, symSize: 0x24 }
  - { offsetInCU: 0x21A76, offset: 0x21A76, size: 0x8, addend: 0x0, symName: __ZNKSt3__117__compressed_pairIPPNS_16__hash_node_baseIPNS_11__hash_nodeINS_17__hash_value_typeINS_12basic_stringIcNS_11char_traitsIcEENS_9allocatorIcEEEEcEEPvEEEENS_25__bucket_list_deallocatorINS7_ISF_EEEEE5firstB7v160006Ev, symObjAddr: 0xED0C, symBinAddr: 0x10000F808, symSize: 0x24 }
  - { offsetInCU: 0x21A9C, offset: 0x21A9C, size: 0x8, addend: 0x0, symName: __ZNKSt3__122__compressed_pair_elemIPPNS_16__hash_node_baseIPNS_11__hash_nodeINS_17__hash_value_typeINS_12basic_stringIcNS_11char_traitsIcEENS_9allocatorIcEEEEcEEPvEEEELi0ELb0EE5__getB7v160006Ev, symObjAddr: 0xED30, symBinAddr: 0x10000F82C, symSize: 0x14 }
  - { offsetInCU: 0x21AC2, offset: 0x21AC2, size: 0x8, addend: 0x0, symName: __ZNKSt3__117__compressed_pairIfNS_21__unordered_map_equalINS_12basic_stringIcNS_11char_traitsIcEENS_9allocatorIcEEEENS_17__hash_value_typeIS7_cEENS_8equal_toIS7_EENS_4hashIS7_EELb1EEEE6secondB7v160006Ev, symObjAddr: 0xED44, symBinAddr: 0x10000F840, symSize: 0x24 }
  - { offsetInCU: 0x21AE8, offset: 0x21AE8, size: 0x8, addend: 0x0, symName: __ZNKSt3__122__compressed_pair_elemINS_21__unordered_map_equalINS_12basic_stringIcNS_11char_traitsIcEENS_9allocatorIcEEEENS_17__hash_value_typeIS7_cEENS_8equal_toIS7_EENS_4hashIS7_EELb1EEELi1ELb1EE5__getB7v160006Ev, symObjAddr: 0xED68, symBinAddr: 0x10000F864, symSize: 0x14 }
  - { offsetInCU: 0x21B0E, offset: 0x21B0E, size: 0x8, addend: 0x0, symName: __ZNKSt3__18equal_toINS_12basic_stringIcNS_11char_traitsIcEENS_9allocatorIcEEEEEclB7v160006ERKS6_S9_, symObjAddr: 0xED7C, symBinAddr: 0x10000F878, symSize: 0x34 }
  - { offsetInCU: 0x21B52, offset: 0x21B52, size: 0x8, addend: 0x0, symName: __ZNKSt3__117__hash_value_typeINS_12basic_stringIcNS_11char_traitsIcEENS_9allocatorIcEEEEcE11__get_valueB7v160006Ev, symObjAddr: 0xEDB0, symBinAddr: 0x10000F8AC, symSize: 0x14 }
  - { offsetInCU: 0x21B78, offset: 0x21B78, size: 0x8, addend: 0x0, symName: __ZNSt3__111char_traitsIcE7compareEPKcS3_m, symObjAddr: 0xEF0C, symBinAddr: 0x10000FA08, symSize: 0x80 }
  - { offsetInCU: 0x21BB7, offset: 0x21BB7, size: 0x8, addend: 0x0, symName: __ZNSt3__114pointer_traitsIPNS_16__hash_node_baseIPNS_11__hash_nodeINS_17__hash_value_typeINS_12basic_stringIcNS_11char_traitsIcEENS_9allocatorIcEEEEcEEPvEEEEE10pointer_toB7v160006ERSE_, symObjAddr: 0xEFC0, symBinAddr: 0x10000FABC, symSize: 0x14 }
  - { offsetInCU: 0x21BDA, offset: 0x21BDA, size: 0x8, addend: 0x0, symName: __ZNSt3__121__hash_const_iteratorIPNS_11__hash_nodeINS_17__hash_value_typeINS_12basic_stringIcNS_11char_traitsIcEENS_9allocatorIcEEEEcEEPvEEEC2B7v160006EPNS_16__hash_node_baseISC_EEPKv, symObjAddr: 0xEFD4, symBinAddr: 0x10000FAD0, symSize: 0x24 }
  - { offsetInCU: 0x21C22, offset: 0x21C22, size: 0x8, addend: 0x0, symName: __ZNSt3__113unordered_mapINS_12basic_stringIcNS_11char_traitsIcEENS_9allocatorIcEEEEcNS_4hashIS6_EENS_8equal_toIS6_EENS4_INS_4pairIKS6_cEEEEE4findB7v160006ERSC_, symObjAddr: 0xEFF8, symBinAddr: 0x10000FAF4, symSize: 0x40 }
  - { offsetInCU: 0x21C57, offset: 0x21C57, size: 0x8, addend: 0x0, symName: __ZNSt3__113unordered_mapINS_12basic_stringIcNS_11char_traitsIcEENS_9allocatorIcEEEEcNS_4hashIS6_EENS_8equal_toIS6_EENS4_INS_4pairIKS6_cEEEEE3endB7v160006Ev, symObjAddr: 0xF068, symBinAddr: 0x10000FB64, symSize: 0x38 }
  - { offsetInCU: 0x21C7D, offset: 0x21C7D, size: 0x8, addend: 0x0, symName: __ZNKSt3__119__hash_map_iteratorINS_15__hash_iteratorIPNS_11__hash_nodeINS_17__hash_value_typeINS_12basic_stringIcNS_11char_traitsIcEENS_9allocatorIcEEEEcEEPvEEEEEptB7v160006Ev, symObjAddr: 0xF0A0, symBinAddr: 0x10000FB9C, symSize: 0x2C }
  - { offsetInCU: 0x21CA3, offset: 0x21CA3, size: 0x8, addend: 0x0, symName: __ZNSt3__113unordered_mapINS_12basic_stringIcNS_11char_traitsIcEENS_9allocatorIcEEEEcNS_4hashIS6_EENS_8equal_toIS6_EENS4_INS_4pairIKS6_cEEEEE25__construct_node_with_keyERSC_, symObjAddr: 0xF0CC, symBinAddr: 0x10000FBC8, symSize: 0x144 }
  - { offsetInCU: 0x21CF9, offset: 0x21CF9, size: 0x8, addend: 0x0, symName: __ZNSt3__112__hash_tableINS_17__hash_value_typeINS_12basic_stringIcNS_11char_traitsIcEENS_9allocatorIcEEEEcEENS_22__unordered_map_hasherIS7_S8_NS_4hashIS7_EENS_8equal_toIS7_EELb1EEENS_21__unordered_map_equalIS7_S8_SD_SB_Lb1EEENS5_IS8_EEE20__node_insert_uniqueEPNS_11__hash_nodeIS8_PvEE, symObjAddr: 0xF210, symBinAddr: 0x10000FD0C, symSize: 0xC8 }
  - { offsetInCU: 0x21D4E, offset: 0x21D4E, size: 0x8, addend: 0x0, symName: __ZNKSt3__110unique_ptrINS_11__hash_nodeINS_17__hash_value_typeINS_12basic_stringIcNS_11char_traitsIcEENS_9allocatorIcEEEEcEEPvEENS_26__hash_map_node_destructorINS6_ISB_EEEEE3getB7v160006Ev, symObjAddr: 0xF2D8, symBinAddr: 0x10000FDD4, symSize: 0x28 }
  - { offsetInCU: 0x21D74, offset: 0x21D74, size: 0x8, addend: 0x0, symName: __ZNSt3__14pairINS_19__hash_map_iteratorINS_15__hash_iteratorIPNS_11__hash_nodeINS_17__hash_value_typeINS_12basic_stringIcNS_11char_traitsIcEENS_9allocatorIcEEEEcEEPvEEEEEEbEC1B7v160006ISF_bEERKNS0_IT_T0_EE, symObjAddr: 0xF300, symBinAddr: 0x10000FDFC, symSize: 0x34 }
  - { offsetInCU: 0x21DBE, offset: 0x21DBE, size: 0x8, addend: 0x0, symName: __ZNSt3__110unique_ptrINS_11__hash_nodeINS_17__hash_value_typeINS_12basic_stringIcNS_11char_traitsIcEENS_9allocatorIcEEEEcEEPvEENS_26__hash_map_node_destructorINS6_ISB_EEEEE7releaseB7v160006Ev, symObjAddr: 0xF334, symBinAddr: 0x10000FE30, symSize: 0x44 }
  - { offsetInCU: 0x21DF3, offset: 0x21DF3, size: 0x8, addend: 0x0, symName: __ZNSt3__110unique_ptrINS_11__hash_nodeINS_17__hash_value_typeINS_12basic_stringIcNS_11char_traitsIcEENS_9allocatorIcEEEEcEEPvEENS_26__hash_map_node_destructorINS6_ISB_EEEEED1B7v160006Ev, symObjAddr: 0xF378, symBinAddr: 0x10000FE74, symSize: 0x2C }
  - { offsetInCU: 0x21E1D, offset: 0x21E1D, size: 0x8, addend: 0x0, symName: __ZNSt3__112__hash_tableINS_17__hash_value_typeINS_12basic_stringIcNS_11char_traitsIcEENS_9allocatorIcEEEEcEENS_22__unordered_map_hasherIS7_S8_NS_4hashIS7_EENS_8equal_toIS7_EELb1EEENS_21__unordered_map_equalIS7_S8_SD_SB_Lb1EEENS5_IS8_EEE4findIS7_EENS_15__hash_iteratorIPNS_11__hash_nodeIS8_PvEEEERKT_, symObjAddr: 0xF3A4, symBinAddr: 0x10000FEA0, symSize: 0x1B4 }
  - { offsetInCU: 0x21EA7, offset: 0x21EA7, size: 0x8, addend: 0x0, symName: __ZNSt3__119__hash_map_iteratorINS_15__hash_iteratorIPNS_11__hash_nodeINS_17__hash_value_typeINS_12basic_stringIcNS_11char_traitsIcEENS_9allocatorIcEEEEcEEPvEEEEEC1B7v160006ESE_, symObjAddr: 0xF558, symBinAddr: 0x100010054, symSize: 0x34 }
  - { offsetInCU: 0x21EE0, offset: 0x21EE0, size: 0x8, addend: 0x0, symName: __ZNSt3__112__hash_tableINS_17__hash_value_typeINS_12basic_stringIcNS_11char_traitsIcEENS_9allocatorIcEEEEcEENS_22__unordered_map_hasherIS7_S8_NS_4hashIS7_EENS_8equal_toIS7_EELb1EEENS_21__unordered_map_equalIS7_S8_SD_SB_Lb1EEENS5_IS8_EEE13hash_functionB7v160006Ev, symObjAddr: 0xF58C, symBinAddr: 0x100010088, symSize: 0x28 }
  - { offsetInCU: 0x21F06, offset: 0x21F06, size: 0x8, addend: 0x0, symName: __ZNSt3__112__hash_tableINS_17__hash_value_typeINS_12basic_stringIcNS_11char_traitsIcEENS_9allocatorIcEEEEcEENS_22__unordered_map_hasherIS7_S8_NS_4hashIS7_EENS_8equal_toIS7_EELb1EEENS_21__unordered_map_equalIS7_S8_SD_SB_Lb1EEENS5_IS8_EEE6key_eqB7v160006Ev, symObjAddr: 0xF5B4, symBinAddr: 0x1000100B0, symSize: 0x28 }
  - { offsetInCU: 0x21F2C, offset: 0x21F2C, size: 0x8, addend: 0x0, symName: __ZNSt3__115__hash_iteratorIPNS_11__hash_nodeINS_17__hash_value_typeINS_12basic_stringIcNS_11char_traitsIcEENS_9allocatorIcEEEEcEEPvEEEC1B7v160006EPNS_16__hash_node_baseISC_EEPKv, symObjAddr: 0xF5DC, symBinAddr: 0x1000100D8, symSize: 0x3C }
  - { offsetInCU: 0x21F74, offset: 0x21F74, size: 0x8, addend: 0x0, symName: __ZNSt3__112__hash_tableINS_17__hash_value_typeINS_12basic_stringIcNS_11char_traitsIcEENS_9allocatorIcEEEEcEENS_22__unordered_map_hasherIS7_S8_NS_4hashIS7_EENS_8equal_toIS7_EELb1EEENS_21__unordered_map_equalIS7_S8_SD_SB_Lb1EEENS5_IS8_EEE3endEv, symObjAddr: 0xF618, symBinAddr: 0x100010114, symSize: 0x30 }
  - { offsetInCU: 0x21F9C, offset: 0x21F9C, size: 0x8, addend: 0x0, symName: __ZNSt3__117__compressed_pairImNS_22__unordered_map_hasherINS_12basic_stringIcNS_11char_traitsIcEENS_9allocatorIcEEEENS_17__hash_value_typeIS7_cEENS_4hashIS7_EENS_8equal_toIS7_EELb1EEEE6secondB7v160006Ev, symObjAddr: 0xF648, symBinAddr: 0x100010144, symSize: 0x24 }
  - { offsetInCU: 0x21FC2, offset: 0x21FC2, size: 0x8, addend: 0x0, symName: __ZNSt3__122__compressed_pair_elemINS_22__unordered_map_hasherINS_12basic_stringIcNS_11char_traitsIcEENS_9allocatorIcEEEENS_17__hash_value_typeIS7_cEENS_4hashIS7_EENS_8equal_toIS7_EELb1EEELi1ELb1EE5__getB7v160006Ev, symObjAddr: 0xF66C, symBinAddr: 0x100010168, symSize: 0x14 }
  - { offsetInCU: 0x21FE8, offset: 0x21FE8, size: 0x8, addend: 0x0, symName: __ZNSt3__117__compressed_pairIfNS_21__unordered_map_equalINS_12basic_stringIcNS_11char_traitsIcEENS_9allocatorIcEEEENS_17__hash_value_typeIS7_cEENS_8equal_toIS7_EENS_4hashIS7_EELb1EEEE6secondB7v160006Ev, symObjAddr: 0xF680, symBinAddr: 0x10001017C, symSize: 0x24 }
  - { offsetInCU: 0x2200E, offset: 0x2200E, size: 0x8, addend: 0x0, symName: __ZNSt3__122__compressed_pair_elemINS_21__unordered_map_equalINS_12basic_stringIcNS_11char_traitsIcEENS_9allocatorIcEEEENS_17__hash_value_typeIS7_cEENS_8equal_toIS7_EENS_4hashIS7_EELb1EEELi1ELb1EE5__getB7v160006Ev, symObjAddr: 0xF6A4, symBinAddr: 0x1000101A0, symSize: 0x14 }
  - { offsetInCU: 0x22034, offset: 0x22034, size: 0x8, addend: 0x0, symName: __ZNSt3__115__hash_iteratorIPNS_11__hash_nodeINS_17__hash_value_typeINS_12basic_stringIcNS_11char_traitsIcEENS_9allocatorIcEEEEcEEPvEEEC2B7v160006EPNS_16__hash_node_baseISC_EEPKv, symObjAddr: 0xF6B8, symBinAddr: 0x1000101B4, symSize: 0x24 }
  - { offsetInCU: 0x2207C, offset: 0x2207C, size: 0x8, addend: 0x0, symName: __ZNSt3__119__hash_map_iteratorINS_15__hash_iteratorIPNS_11__hash_nodeINS_17__hash_value_typeINS_12basic_stringIcNS_11char_traitsIcEENS_9allocatorIcEEEEcEEPvEEEEEC2B7v160006ESE_, symObjAddr: 0xF6DC, symBinAddr: 0x1000101D8, symSize: 0x20 }
  - { offsetInCU: 0x220B5, offset: 0x220B5, size: 0x8, addend: 0x0, symName: __ZNSt3__114pointer_traitsIPNS_4pairIKNS_12basic_stringIcNS_11char_traitsIcEENS_9allocatorIcEEEEcEEE10pointer_toB7v160006ERS9_, symObjAddr: 0xF760, symBinAddr: 0x10001025C, symSize: 0x14 }
  - { offsetInCU: 0x220D8, offset: 0x220D8, size: 0x8, addend: 0x0, symName: __ZNKSt3__115__hash_iteratorIPNS_11__hash_nodeINS_17__hash_value_typeINS_12basic_stringIcNS_11char_traitsIcEENS_9allocatorIcEEEEcEEPvEEEptB7v160006Ev, symObjAddr: 0xF774, symBinAddr: 0x100010270, symSize: 0x30 }
  - { offsetInCU: 0x220FE, offset: 0x220FE, size: 0x8, addend: 0x0, symName: __ZNSt3__117__hash_value_typeINS_12basic_stringIcNS_11char_traitsIcEENS_9allocatorIcEEEEcE11__get_valueB7v160006Ev, symObjAddr: 0xF7A4, symBinAddr: 0x1000102A0, symSize: 0x14 }
  - { offsetInCU: 0x22124, offset: 0x22124, size: 0x8, addend: 0x0, symName: __ZNSt3__114pointer_traitsIPNS_17__hash_value_typeINS_12basic_stringIcNS_11char_traitsIcEENS_9allocatorIcEEEEcEEE10pointer_toB7v160006ERS8_, symObjAddr: 0xF7B8, symBinAddr: 0x1000102B4, symSize: 0x14 }
  - { offsetInCU: 0x22147, offset: 0x22147, size: 0x8, addend: 0x0, symName: __ZNSt3__112__hash_tableINS_17__hash_value_typeINS_12basic_stringIcNS_11char_traitsIcEENS_9allocatorIcEEEEcEENS_22__unordered_map_hasherIS7_S8_NS_4hashIS7_EENS_8equal_toIS7_EELb1EEENS_21__unordered_map_equalIS7_S8_SD_SB_Lb1EEENS5_IS8_EEE12__node_allocB7v160006Ev, symObjAddr: 0xF7CC, symBinAddr: 0x1000102C8, symSize: 0x28 }
  - { offsetInCU: 0x2216D, offset: 0x2216D, size: 0x8, addend: 0x0, symName: __ZNSt3__116allocator_traitsINS_9allocatorINS_11__hash_nodeINS_17__hash_value_typeINS_12basic_stringIcNS_11char_traitsIcEENS1_IcEEEEcEEPvEEEEE8allocateB7v160006ERSC_m, symObjAddr: 0xF7F4, symBinAddr: 0x1000102F0, symSize: 0x2C }
  - { offsetInCU: 0x221A0, offset: 0x221A0, size: 0x8, addend: 0x0, symName: __ZNSt3__126__hash_map_node_destructorINS_9allocatorINS_11__hash_nodeINS_17__hash_value_typeINS_12basic_stringIcNS_11char_traitsIcEENS1_IcEEEEcEEPvEEEEEC1B7v160006ERSC_, symObjAddr: 0xF820, symBinAddr: 0x10001031C, symSize: 0x34 }
  - { offsetInCU: 0x221DF, offset: 0x221DF, size: 0x8, addend: 0x0, symName: __ZNSt3__110unique_ptrINS_11__hash_nodeINS_17__hash_value_typeINS_12basic_stringIcNS_11char_traitsIcEENS_9allocatorIcEEEEcEEPvEENS_26__hash_map_node_destructorINS6_ISB_EEEEEC1B7v160006ILb1EvEEPSB_NS_16__dependent_typeINS_27__unique_ptr_deleter_sfinaeISE_EEXT_EE20__good_rval_ref_typeE, symObjAddr: 0xF854, symBinAddr: 0x100010350, symSize: 0x3C }
  - { offsetInCU: 0x22235, offset: 0x22235, size: 0x8, addend: 0x0, symName: __ZNSt3__116allocator_traitsINS_9allocatorINS_11__hash_nodeINS_17__hash_value_typeINS_12basic_stringIcNS_11char_traitsIcEENS1_IcEEEEcEEPvEEEEE9constructB7v160006IKS8_JRSF_EvEEvRSC_PT_DpOT0_, symObjAddr: 0xF890, symBinAddr: 0x10001038C, symSize: 0x34 }
  - { offsetInCU: 0x2228C, offset: 0x2228C, size: 0x8, addend: 0x0, symName: __ZNKSt3__110unique_ptrINS_11__hash_nodeINS_17__hash_value_typeINS_12basic_stringIcNS_11char_traitsIcEENS_9allocatorIcEEEEcEEPvEENS_26__hash_map_node_destructorINS6_ISB_EEEEEptB7v160006Ev, symObjAddr: 0xF8C4, symBinAddr: 0x1000103C0, symSize: 0x28 }
  - { offsetInCU: 0x222B2, offset: 0x222B2, size: 0x8, addend: 0x0, symName: __ZNSt3__110unique_ptrINS_11__hash_nodeINS_17__hash_value_typeINS_12basic_stringIcNS_11char_traitsIcEENS_9allocatorIcEEEEcEEPvEENS_26__hash_map_node_destructorINS6_ISB_EEEEE11get_deleterB7v160006Ev, symObjAddr: 0xF8EC, symBinAddr: 0x1000103E8, symSize: 0x24 }
  - { offsetInCU: 0x222D8, offset: 0x222D8, size: 0x8, addend: 0x0, symName: __ZNSt3__116allocator_traitsINS_9allocatorINS_11__hash_nodeINS_17__hash_value_typeINS_12basic_stringIcNS_11char_traitsIcEENS1_IcEEEEcEEPvEEEEE9constructB7v160006IcJEvEEvRSC_PT_DpOT0_, symObjAddr: 0xF910, symBinAddr: 0x10001040C, symSize: 0x2C }
  - { offsetInCU: 0x2231A, offset: 0x2231A, size: 0x8, addend: 0x0, symName: __ZNSt3__117__compressed_pairINS_16__hash_node_baseIPNS_11__hash_nodeINS_17__hash_value_typeINS_12basic_stringIcNS_11char_traitsIcEENS_9allocatorIcEEEEcEEPvEEEENS7_ISC_EEE6secondB7v160006Ev, symObjAddr: 0xF93C, symBinAddr: 0x100010438, symSize: 0x24 }
  - { offsetInCU: 0x22340, offset: 0x22340, size: 0x8, addend: 0x0, symName: __ZNSt3__122__compressed_pair_elemINS_9allocatorINS_11__hash_nodeINS_17__hash_value_typeINS_12basic_stringIcNS_11char_traitsIcEENS1_IcEEEEcEEPvEEEELi1ELb1EE5__getB7v160006Ev, symObjAddr: 0xF960, symBinAddr: 0x10001045C, symSize: 0x14 }
  - { offsetInCU: 0x22366, offset: 0x22366, size: 0x8, addend: 0x0, symName: __ZNSt3__19allocatorINS_11__hash_nodeINS_17__hash_value_typeINS_12basic_stringIcNS_11char_traitsIcEENS0_IcEEEEcEEPvEEE8allocateB7v160006Em, symObjAddr: 0xF974, symBinAddr: 0x100010470, symSize: 0x8C }
  - { offsetInCU: 0x223A5, offset: 0x223A5, size: 0x8, addend: 0x0, symName: __ZNSt3__116allocator_traitsINS_9allocatorINS_11__hash_nodeINS_17__hash_value_typeINS_12basic_stringIcNS_11char_traitsIcEENS1_IcEEEEcEEPvEEEEE8max_sizeB7v160006ISC_vEEmRKSC_, symObjAddr: 0xFA00, symBinAddr: 0x1000104FC, symSize: 0x24 }
  - { offsetInCU: 0x223D3, offset: 0x223D3, size: 0x8, addend: 0x0, symName: __ZNKSt3__19allocatorINS_11__hash_nodeINS_17__hash_value_typeINS_12basic_stringIcNS_11char_traitsIcEENS0_IcEEEEcEEPvEEE8max_sizeB7v160006Ev, symObjAddr: 0xFA24, symBinAddr: 0x100010520, symSize: 0x18 }
  - { offsetInCU: 0x223F9, offset: 0x223F9, size: 0x8, addend: 0x0, symName: __ZNSt3__126__hash_map_node_destructorINS_9allocatorINS_11__hash_nodeINS_17__hash_value_typeINS_12basic_stringIcNS_11char_traitsIcEENS1_IcEEEEcEEPvEEEEEC2B7v160006ERSC_, symObjAddr: 0xFA3C, symBinAddr: 0x100010538, symSize: 0x28 }
  - { offsetInCU: 0x22432, offset: 0x22432, size: 0x8, addend: 0x0, symName: __ZNSt3__110unique_ptrINS_11__hash_nodeINS_17__hash_value_typeINS_12basic_stringIcNS_11char_traitsIcEENS_9allocatorIcEEEEcEEPvEENS_26__hash_map_node_destructorINS6_ISB_EEEEEC2B7v160006ILb1EvEEPSB_NS_16__dependent_typeINS_27__unique_ptr_deleter_sfinaeISE_EEXT_EE20__good_rval_ref_typeE, symObjAddr: 0xFA64, symBinAddr: 0x100010560, symSize: 0x5C }
  - { offsetInCU: 0x22483, offset: 0x22483, size: 0x8, addend: 0x0, symName: __ZNSt3__117__compressed_pairIPNS_11__hash_nodeINS_17__hash_value_typeINS_12basic_stringIcNS_11char_traitsIcEENS_9allocatorIcEEEEcEEPvEENS_26__hash_map_node_destructorINS6_ISB_EEEEEC1B7v160006IRSC_SF_EEOT_OT0_, symObjAddr: 0xFAC0, symBinAddr: 0x1000105BC, symSize: 0x3C }
  - { offsetInCU: 0x224DB, offset: 0x224DB, size: 0x8, addend: 0x0, symName: __ZNSt3__117__compressed_pairIPNS_11__hash_nodeINS_17__hash_value_typeINS_12basic_stringIcNS_11char_traitsIcEENS_9allocatorIcEEEEcEEPvEENS_26__hash_map_node_destructorINS6_ISB_EEEEEC2B7v160006IRSC_SF_EEOT_OT0_, symObjAddr: 0xFAFC, symBinAddr: 0x1000105F8, symSize: 0x48 }
  - { offsetInCU: 0x22533, offset: 0x22533, size: 0x8, addend: 0x0, symName: __ZNSt3__122__compressed_pair_elemIPNS_11__hash_nodeINS_17__hash_value_typeINS_12basic_stringIcNS_11char_traitsIcEENS_9allocatorIcEEEEcEEPvEELi0ELb0EEC2B7v160006IRSC_vEEOT_, symObjAddr: 0xFB44, symBinAddr: 0x100010640, symSize: 0x24 }
  - { offsetInCU: 0x22575, offset: 0x22575, size: 0x8, addend: 0x0, symName: __ZNSt3__122__compressed_pair_elemINS_26__hash_map_node_destructorINS_9allocatorINS_11__hash_nodeINS_17__hash_value_typeINS_12basic_stringIcNS_11char_traitsIcEENS2_IcEEEEcEEPvEEEEEELi1ELb0EEC2B7v160006ISE_vEEOT_, symObjAddr: 0xFB68, symBinAddr: 0x100010664, symSize: 0x24 }
  - { offsetInCU: 0x225B7, offset: 0x225B7, size: 0x8, addend: 0x0, symName: __ZNSt3__19allocatorINS_11__hash_nodeINS_17__hash_value_typeINS_12basic_stringIcNS_11char_traitsIcEENS0_IcEEEEcEEPvEEE9constructB7v160006IKS7_JRSD_EEEvPT_DpOT0_, symObjAddr: 0xFB8C, symBinAddr: 0x100010688, symSize: 0x30 }
  - { offsetInCU: 0x2260D, offset: 0x2260D, size: 0x8, addend: 0x0, symName: __ZNKSt3__117__compressed_pairIPNS_11__hash_nodeINS_17__hash_value_typeINS_12basic_stringIcNS_11char_traitsIcEENS_9allocatorIcEEEEcEEPvEENS_26__hash_map_node_destructorINS6_ISB_EEEEE5firstB7v160006Ev, symObjAddr: 0xFBBC, symBinAddr: 0x1000106B8, symSize: 0x24 }
  - { offsetInCU: 0x22633, offset: 0x22633, size: 0x8, addend: 0x0, symName: __ZNKSt3__122__compressed_pair_elemIPNS_11__hash_nodeINS_17__hash_value_typeINS_12basic_stringIcNS_11char_traitsIcEENS_9allocatorIcEEEEcEEPvEELi0ELb0EE5__getB7v160006Ev, symObjAddr: 0xFBE0, symBinAddr: 0x1000106DC, symSize: 0x14 }
  - { offsetInCU: 0x22659, offset: 0x22659, size: 0x8, addend: 0x0, symName: __ZNSt3__117__compressed_pairIPNS_11__hash_nodeINS_17__hash_value_typeINS_12basic_stringIcNS_11char_traitsIcEENS_9allocatorIcEEEEcEEPvEENS_26__hash_map_node_destructorINS6_ISB_EEEEE6secondB7v160006Ev, symObjAddr: 0xFBF4, symBinAddr: 0x1000106F0, symSize: 0x28 }
  - { offsetInCU: 0x2267F, offset: 0x2267F, size: 0x8, addend: 0x0, symName: __ZNSt3__122__compressed_pair_elemINS_26__hash_map_node_destructorINS_9allocatorINS_11__hash_nodeINS_17__hash_value_typeINS_12basic_stringIcNS_11char_traitsIcEENS2_IcEEEEcEEPvEEEEEELi1ELb0EE5__getB7v160006Ev, symObjAddr: 0xFC1C, symBinAddr: 0x100010718, symSize: 0x14 }
  - { offsetInCU: 0x226A5, offset: 0x226A5, size: 0x8, addend: 0x0, symName: __ZNSt3__19allocatorINS_11__hash_nodeINS_17__hash_value_typeINS_12basic_stringIcNS_11char_traitsIcEENS0_IcEEEEcEEPvEEE9constructB7v160006IcJEEEvPT_DpOT0_, symObjAddr: 0xFC30, symBinAddr: 0x10001072C, symSize: 0x1C }
  - { offsetInCU: 0x226E7, offset: 0x226E7, size: 0x8, addend: 0x0, symName: __ZNKSt3__122__unordered_map_hasherINS_12basic_stringIcNS_11char_traitsIcEENS_9allocatorIcEEEENS_17__hash_value_typeIS6_cEENS_4hashIS6_EENS_8equal_toIS6_EELb1EEclB7v160006ERKS8_, symObjAddr: 0xFC4C, symBinAddr: 0x100010748, symSize: 0x3C }
  - { offsetInCU: 0x2271C, offset: 0x2271C, size: 0x8, addend: 0x0, symName: __ZNSt3__112__hash_tableINS_17__hash_value_typeINS_12basic_stringIcNS_11char_traitsIcEENS_9allocatorIcEEEEcEENS_22__unordered_map_hasherIS7_S8_NS_4hashIS7_EENS_8equal_toIS7_EELb1EEENS_21__unordered_map_equalIS7_S8_SD_SB_Lb1EEENS5_IS8_EEE28__node_insert_unique_prepareB7v160006EmRS8_, symObjAddr: 0xFC88, symBinAddr: 0x100010784, symSize: 0x244 }
  - { offsetInCU: 0x2279D, offset: 0x2279D, size: 0x8, addend: 0x0, symName: __ZNSt3__112__hash_tableINS_17__hash_value_typeINS_12basic_stringIcNS_11char_traitsIcEENS_9allocatorIcEEEEcEENS_22__unordered_map_hasherIS7_S8_NS_4hashIS7_EENS_8equal_toIS7_EELb1EEENS_21__unordered_map_equalIS7_S8_SD_SB_Lb1EEENS5_IS8_EEE28__node_insert_unique_performB7v160006EPNS_11__hash_nodeIS8_PvEE, symObjAddr: 0xFECC, symBinAddr: 0x1000109C8, symSize: 0x154 }
  - { offsetInCU: 0x22801, offset: 0x22801, size: 0x8, addend: 0x0, symName: __ZNSt3__116__hash_node_baseIPNS_11__hash_nodeINS_17__hash_value_typeINS_12basic_stringIcNS_11char_traitsIcEENS_9allocatorIcEEEEcEEPvEEE5__ptrB7v160006Ev, symObjAddr: 0x10020, symBinAddr: 0x100010B1C, symSize: 0x24 }
  - { offsetInCU: 0x22827, offset: 0x22827, size: 0x8, addend: 0x0, symName: __ZNSt3__14pairINS_15__hash_iteratorIPNS_11__hash_nodeINS_17__hash_value_typeINS_12basic_stringIcNS_11char_traitsIcEENS_9allocatorIcEEEEcEEPvEEEEbEC1B7v160006ERKSE_RKb, symObjAddr: 0x10044, symBinAddr: 0x100010B40, symSize: 0x3C }
  - { offsetInCU: 0x2286D, offset: 0x2286D, size: 0x8, addend: 0x0, symName: __ZNKSt3__121__unordered_map_equalINS_12basic_stringIcNS_11char_traitsIcEENS_9allocatorIcEEEENS_17__hash_value_typeIS6_cEENS_8equal_toIS6_EENS_4hashIS6_EELb1EEclB7v160006ERKS8_SF_, symObjAddr: 0x10080, symBinAddr: 0x100010B7C, symSize: 0x54 }
  - { offsetInCU: 0x228B1, offset: 0x228B1, size: 0x8, addend: 0x0, symName: __ZNSt3__112__hash_tableINS_17__hash_value_typeINS_12basic_stringIcNS_11char_traitsIcEENS_9allocatorIcEEEEcEENS_22__unordered_map_hasherIS7_S8_NS_4hashIS7_EENS_8equal_toIS7_EELb1EEENS_21__unordered_map_equalIS7_S8_SD_SB_Lb1EEENS5_IS8_EEE4sizeB7v160006Ev, symObjAddr: 0x100D4, symBinAddr: 0x100010BD0, symSize: 0x28 }
  - { offsetInCU: 0x228D7, offset: 0x228D7, size: 0x8, addend: 0x0, symName: __ZNSt3__112__hash_tableINS_17__hash_value_typeINS_12basic_stringIcNS_11char_traitsIcEENS_9allocatorIcEEEEcEENS_22__unordered_map_hasherIS7_S8_NS_4hashIS7_EENS_8equal_toIS7_EELb1EEENS_21__unordered_map_equalIS7_S8_SD_SB_Lb1EEENS5_IS8_EEE15max_load_factorB7v160006Ev, symObjAddr: 0x100FC, symBinAddr: 0x100010BF8, symSize: 0x28 }
  - { offsetInCU: 0x228FD, offset: 0x228FD, size: 0x8, addend: 0x0, symName: __ZNSt3__112__hash_tableINS_17__hash_value_typeINS_12basic_stringIcNS_11char_traitsIcEENS_9allocatorIcEEEEcEENS_22__unordered_map_hasherIS7_S8_NS_4hashIS7_EENS_8equal_toIS7_EELb1EEENS_21__unordered_map_equalIS7_S8_SD_SB_Lb1EEENS5_IS8_EEE15__rehash_uniqueB7v160006Em, symObjAddr: 0x10124, symBinAddr: 0x100010C20, symSize: 0x2C }
  - { offsetInCU: 0x22932, offset: 0x22932, size: 0x8, addend: 0x0, symName: __ZNSt3__117__compressed_pairImNS_22__unordered_map_hasherINS_12basic_stringIcNS_11char_traitsIcEENS_9allocatorIcEEEENS_17__hash_value_typeIS7_cEENS_4hashIS7_EENS_8equal_toIS7_EELb1EEEE5firstB7v160006Ev, symObjAddr: 0x10150, symBinAddr: 0x100010C4C, symSize: 0x24 }
  - { offsetInCU: 0x22958, offset: 0x22958, size: 0x8, addend: 0x0, symName: __ZNSt3__117__compressed_pairIfNS_21__unordered_map_equalINS_12basic_stringIcNS_11char_traitsIcEENS_9allocatorIcEEEENS_17__hash_value_typeIS7_cEENS_8equal_toIS7_EENS_4hashIS7_EELb1EEEE5firstB7v160006Ev, symObjAddr: 0x10174, symBinAddr: 0x100010C70, symSize: 0x24 }
  - { offsetInCU: 0x2297E, offset: 0x2297E, size: 0x8, addend: 0x0, symName: __ZNSt3__112__hash_tableINS_17__hash_value_typeINS_12basic_stringIcNS_11char_traitsIcEENS_9allocatorIcEEEEcEENS_22__unordered_map_hasherIS7_S8_NS_4hashIS7_EENS_8equal_toIS7_EELb1EEENS_21__unordered_map_equalIS7_S8_SD_SB_Lb1EEENS5_IS8_EEE8__rehashILb1EEEvm, symObjAddr: 0x10198, symBinAddr: 0x100010C94, symSize: 0x1A8 }
  - { offsetInCU: 0x229CE, offset: 0x229CE, size: 0x8, addend: 0x0, symName: __ZNSt3__112__hash_tableINS_17__hash_value_typeINS_12basic_stringIcNS_11char_traitsIcEENS_9allocatorIcEEEEcEENS_22__unordered_map_hasherIS7_S8_NS_4hashIS7_EENS_8equal_toIS7_EELb1EEENS_21__unordered_map_equalIS7_S8_SD_SB_Lb1EEENS5_IS8_EEE11__do_rehashILb1EEEvm, symObjAddr: 0x10340, symBinAddr: 0x100010E3C, symSize: 0x290 }
  - { offsetInCU: 0x22AB1, offset: 0x22AB1, size: 0x8, addend: 0x0, symName: __ZNSt3__110unique_ptrIA_PNS_16__hash_node_baseIPNS_11__hash_nodeINS_17__hash_value_typeINS_12basic_stringIcNS_11char_traitsIcEENS_9allocatorIcEEEEcEEPvEEEENS_25__bucket_list_deallocatorINS7_ISF_EEEEE11get_deleterB7v160006Ev, symObjAddr: 0x105E0, symBinAddr: 0x1000110DC, symSize: 0x24 }
  - { offsetInCU: 0x22AD7, offset: 0x22AD7, size: 0x8, addend: 0x0, symName: __ZNSt3__125__bucket_list_deallocatorINS_9allocatorIPNS_16__hash_node_baseIPNS_11__hash_nodeINS_17__hash_value_typeINS_12basic_stringIcNS_11char_traitsIcEENS1_IcEEEEcEEPvEEEEEEE7__allocB7v160006Ev, symObjAddr: 0x10604, symBinAddr: 0x100011100, symSize: 0x24 }
  - { offsetInCU: 0x22AFD, offset: 0x22AFD, size: 0x8, addend: 0x0, symName: __ZNSt3__110unique_ptrIA_PNS_16__hash_node_baseIPNS_11__hash_nodeINS_17__hash_value_typeINS_12basic_stringIcNS_11char_traitsIcEENS_9allocatorIcEEEEcEEPvEEEENS_25__bucket_list_deallocatorINS7_ISF_EEEEE5resetB7v160006IPSF_EENS_9enable_ifIXsr28_CheckArrayPointerConversionIT_EE5valueEvE4typeESO_, symObjAddr: 0x10628, symBinAddr: 0x100011124, symSize: 0x78 }
  - { offsetInCU: 0x22B4A, offset: 0x22B4A, size: 0x8, addend: 0x0, symName: __ZNSt3__116allocator_traitsINS_9allocatorIPNS_16__hash_node_baseIPNS_11__hash_nodeINS_17__hash_value_typeINS_12basic_stringIcNS_11char_traitsIcEENS1_IcEEEEcEEPvEEEEEEE8allocateB7v160006ERSG_m, symObjAddr: 0x106A0, symBinAddr: 0x10001119C, symSize: 0x2C }
  - { offsetInCU: 0x22B7D, offset: 0x22B7D, size: 0x8, addend: 0x0, symName: __ZNSt3__125__bucket_list_deallocatorINS_9allocatorIPNS_16__hash_node_baseIPNS_11__hash_nodeINS_17__hash_value_typeINS_12basic_stringIcNS_11char_traitsIcEENS1_IcEEEEcEEPvEEEEEEE4sizeB7v160006Ev, symObjAddr: 0x106CC, symBinAddr: 0x1000111C8, symSize: 0x24 }
  - { offsetInCU: 0x22BA3, offset: 0x22BA3, size: 0x8, addend: 0x0, symName: __ZNSt3__117__compressed_pairINS_16__hash_node_baseIPNS_11__hash_nodeINS_17__hash_value_typeINS_12basic_stringIcNS_11char_traitsIcEENS_9allocatorIcEEEEcEEPvEEEENS7_ISC_EEE5firstB7v160006Ev, symObjAddr: 0x106F0, symBinAddr: 0x1000111EC, symSize: 0x24 }
  - { offsetInCU: 0x22BC9, offset: 0x22BC9, size: 0x8, addend: 0x0, symName: __ZNSt3__117__compressed_pairIPPNS_16__hash_node_baseIPNS_11__hash_nodeINS_17__hash_value_typeINS_12basic_stringIcNS_11char_traitsIcEENS_9allocatorIcEEEEcEEPvEEEENS_25__bucket_list_deallocatorINS7_ISF_EEEEE6secondB7v160006Ev, symObjAddr: 0x10714, symBinAddr: 0x100011210, symSize: 0x28 }
  - { offsetInCU: 0x22BEF, offset: 0x22BEF, size: 0x8, addend: 0x0, symName: __ZNSt3__122__compressed_pair_elemINS_25__bucket_list_deallocatorINS_9allocatorIPNS_16__hash_node_baseIPNS_11__hash_nodeINS_17__hash_value_typeINS_12basic_stringIcNS_11char_traitsIcEENS2_IcEEEEcEEPvEEEEEEEELi1ELb0EE5__getB7v160006Ev, symObjAddr: 0x1073C, symBinAddr: 0x100011238, symSize: 0x14 }
  - { offsetInCU: 0x22C15, offset: 0x22C15, size: 0x8, addend: 0x0, symName: __ZNSt3__117__compressed_pairImNS_9allocatorIPNS_16__hash_node_baseIPNS_11__hash_nodeINS_17__hash_value_typeINS_12basic_stringIcNS_11char_traitsIcEENS1_IcEEEEcEEPvEEEEEEE6secondB7v160006Ev, symObjAddr: 0x10750, symBinAddr: 0x10001124C, symSize: 0x24 }
  - { offsetInCU: 0x22C3B, offset: 0x22C3B, size: 0x8, addend: 0x0, symName: __ZNSt3__122__compressed_pair_elemINS_9allocatorIPNS_16__hash_node_baseIPNS_11__hash_nodeINS_17__hash_value_typeINS_12basic_stringIcNS_11char_traitsIcEENS1_IcEEEEcEEPvEEEEEELi1ELb1EE5__getB7v160006Ev, symObjAddr: 0x10774, symBinAddr: 0x100011270, symSize: 0x14 }
  - { offsetInCU: 0x22C61, offset: 0x22C61, size: 0x8, addend: 0x0, symName: __ZNSt3__117__compressed_pairIPPNS_16__hash_node_baseIPNS_11__hash_nodeINS_17__hash_value_typeINS_12basic_stringIcNS_11char_traitsIcEENS_9allocatorIcEEEEcEEPvEEEENS_25__bucket_list_deallocatorINS7_ISF_EEEEE5firstB7v160006Ev, symObjAddr: 0x10788, symBinAddr: 0x100011284, symSize: 0x24 }
  - { offsetInCU: 0x22C87, offset: 0x22C87, size: 0x8, addend: 0x0, symName: __ZNSt3__125__bucket_list_deallocatorINS_9allocatorIPNS_16__hash_node_baseIPNS_11__hash_nodeINS_17__hash_value_typeINS_12basic_stringIcNS_11char_traitsIcEENS1_IcEEEEcEEPvEEEEEEEclB7v160006EPSF_, symObjAddr: 0x107AC, symBinAddr: 0x1000112A8, symSize: 0x58 }
  - { offsetInCU: 0x22CBC, offset: 0x22CBC, size: 0x8, addend: 0x0, symName: __ZNSt3__122__compressed_pair_elemIPPNS_16__hash_node_baseIPNS_11__hash_nodeINS_17__hash_value_typeINS_12basic_stringIcNS_11char_traitsIcEENS_9allocatorIcEEEEcEEPvEEEELi0ELb0EE5__getB7v160006Ev, symObjAddr: 0x10804, symBinAddr: 0x100011300, symSize: 0x14 }
  - { offsetInCU: 0x22CE2, offset: 0x22CE2, size: 0x8, addend: 0x0, symName: __ZNSt3__116allocator_traitsINS_9allocatorIPNS_16__hash_node_baseIPNS_11__hash_nodeINS_17__hash_value_typeINS_12basic_stringIcNS_11char_traitsIcEENS1_IcEEEEcEEPvEEEEEEE10deallocateB7v160006ERSG_PSF_m, symObjAddr: 0x10818, symBinAddr: 0x100011314, symSize: 0x34 }
  - { offsetInCU: 0x22D24, offset: 0x22D24, size: 0x8, addend: 0x0, symName: __ZNSt3__19allocatorIPNS_16__hash_node_baseIPNS_11__hash_nodeINS_17__hash_value_typeINS_12basic_stringIcNS_11char_traitsIcEENS0_IcEEEEcEEPvEEEEE10deallocateB7v160006EPSE_m, symObjAddr: 0x1084C, symBinAddr: 0x100011348, symSize: 0x70 }
  - { offsetInCU: 0x22D66, offset: 0x22D66, size: 0x8, addend: 0x0, symName: __ZNSt3__19allocatorIPNS_16__hash_node_baseIPNS_11__hash_nodeINS_17__hash_value_typeINS_12basic_stringIcNS_11char_traitsIcEENS0_IcEEEEcEEPvEEEEE8allocateB7v160006Em, symObjAddr: 0x108BC, symBinAddr: 0x1000113B8, symSize: 0x84 }
  - { offsetInCU: 0x22DA5, offset: 0x22DA5, size: 0x8, addend: 0x0, symName: __ZNSt3__116allocator_traitsINS_9allocatorIPNS_16__hash_node_baseIPNS_11__hash_nodeINS_17__hash_value_typeINS_12basic_stringIcNS_11char_traitsIcEENS1_IcEEEEcEEPvEEEEEEE8max_sizeB7v160006ISG_vEEmRKSG_, symObjAddr: 0x10940, symBinAddr: 0x10001143C, symSize: 0x24 }
  - { offsetInCU: 0x22DD3, offset: 0x22DD3, size: 0x8, addend: 0x0, symName: __ZNKSt3__19allocatorIPNS_16__hash_node_baseIPNS_11__hash_nodeINS_17__hash_value_typeINS_12basic_stringIcNS_11char_traitsIcEENS0_IcEEEEcEEPvEEEEE8max_sizeB7v160006Ev, symObjAddr: 0x10964, symBinAddr: 0x100011460, symSize: 0x14 }
  - { offsetInCU: 0x22DF9, offset: 0x22DF9, size: 0x8, addend: 0x0, symName: __ZNSt3__117__compressed_pairImNS_9allocatorIPNS_16__hash_node_baseIPNS_11__hash_nodeINS_17__hash_value_typeINS_12basic_stringIcNS_11char_traitsIcEENS1_IcEEEEcEEPvEEEEEEE5firstB7v160006Ev, symObjAddr: 0x10978, symBinAddr: 0x100011474, symSize: 0x24 }
  - { offsetInCU: 0x22E1F, offset: 0x22E1F, size: 0x8, addend: 0x0, symName: __ZNSt3__122__compressed_pair_elemINS_16__hash_node_baseIPNS_11__hash_nodeINS_17__hash_value_typeINS_12basic_stringIcNS_11char_traitsIcEENS_9allocatorIcEEEEcEEPvEEEELi0ELb0EE5__getB7v160006Ev, symObjAddr: 0x1099C, symBinAddr: 0x100011498, symSize: 0x14 }
  - { offsetInCU: 0x22E45, offset: 0x22E45, size: 0x8, addend: 0x0, symName: __ZNSt3__14pairINS_15__hash_iteratorIPNS_11__hash_nodeINS_17__hash_value_typeINS_12basic_stringIcNS_11char_traitsIcEENS_9allocatorIcEEEEcEEPvEEEEbEC2B7v160006ERKSE_RKb, symObjAddr: 0x109B0, symBinAddr: 0x1000114AC, symSize: 0x38 }
  - { offsetInCU: 0x22E8B, offset: 0x22E8B, size: 0x8, addend: 0x0, symName: __ZNSt3__14pairINS_19__hash_map_iteratorINS_15__hash_iteratorIPNS_11__hash_nodeINS_17__hash_value_typeINS_12basic_stringIcNS_11char_traitsIcEENS_9allocatorIcEEEEcEEPvEEEEEEbEC2B7v160006ISF_bEERKNS0_IT_T0_EE, symObjAddr: 0x109E8, symBinAddr: 0x1000114E4, symSize: 0x50 }
  - { offsetInCU: 0x22ED5, offset: 0x22ED5, size: 0x8, addend: 0x0, symName: __ZNSt3__117__compressed_pairIPNS_11__hash_nodeINS_17__hash_value_typeINS_12basic_stringIcNS_11char_traitsIcEENS_9allocatorIcEEEEcEEPvEENS_26__hash_map_node_destructorINS6_ISB_EEEEE5firstB7v160006Ev, symObjAddr: 0x10A38, symBinAddr: 0x100011534, symSize: 0x24 }
  - { offsetInCU: 0x22EFB, offset: 0x22EFB, size: 0x8, addend: 0x0, symName: __ZNSt3__122__compressed_pair_elemIPNS_11__hash_nodeINS_17__hash_value_typeINS_12basic_stringIcNS_11char_traitsIcEENS_9allocatorIcEEEEcEEPvEELi0ELb0EE5__getB7v160006Ev, symObjAddr: 0x10A5C, symBinAddr: 0x100011558, symSize: 0x14 }
  - { offsetInCU: 0x22F21, offset: 0x22F21, size: 0x8, addend: 0x0, symName: __ZNSt3__110unique_ptrINS_11__hash_nodeINS_17__hash_value_typeINS_12basic_stringIcNS_11char_traitsIcEENS_9allocatorIcEEEEcEEPvEENS_26__hash_map_node_destructorINS6_ISB_EEEEED2B7v160006Ev, symObjAddr: 0x10A70, symBinAddr: 0x10001156C, symSize: 0x30 }
  - { offsetInCU: 0x22F4B, offset: 0x22F4B, size: 0x8, addend: 0x0, symName: __ZNSt3__110unique_ptrINS_11__hash_nodeINS_17__hash_value_typeINS_12basic_stringIcNS_11char_traitsIcEENS_9allocatorIcEEEEcEEPvEENS_26__hash_map_node_destructorINS6_ISB_EEEEE5resetB7v160006EPSB_, symObjAddr: 0x10AA0, symBinAddr: 0x10001159C, symSize: 0x78 }
  - { offsetInCU: 0x22F8F, offset: 0x22F8F, size: 0x8, addend: 0x0, symName: __ZNSt3__126__hash_map_node_destructorINS_9allocatorINS_11__hash_nodeINS_17__hash_value_typeINS_12basic_stringIcNS_11char_traitsIcEENS1_IcEEEEcEEPvEEEEEclB7v160006EPSB_, symObjAddr: 0x10B18, symBinAddr: 0x100011614, symSize: 0xE4 }
  - { offsetInCU: 0x22FC4, offset: 0x22FC4, size: 0x8, addend: 0x0, symName: __ZNSt3__116allocator_traitsINS_9allocatorINS_11__hash_nodeINS_17__hash_value_typeINS_12basic_stringIcNS_11char_traitsIcEENS1_IcEEEEcEEPvEEEEE7destroyB7v160006IcvvEEvRSC_PT_, symObjAddr: 0x10BFC, symBinAddr: 0x1000116F8, symSize: 0x14 }
  - { offsetInCU: 0x22FFE, offset: 0x22FFE, size: 0x8, addend: 0x0, symName: __ZNSt3__116allocator_traitsINS_9allocatorINS_11__hash_nodeINS_17__hash_value_typeINS_12basic_stringIcNS_11char_traitsIcEENS1_IcEEEEcEEPvEEEEE7destroyB7v160006IKS8_vvEEvRSC_PT_, symObjAddr: 0x10C10, symBinAddr: 0x10001170C, symSize: 0x28 }
  - { offsetInCU: 0x23038, offset: 0x23038, size: 0x8, addend: 0x0, symName: __ZNSt3__116allocator_traitsINS_9allocatorINS_11__hash_nodeINS_17__hash_value_typeINS_12basic_stringIcNS_11char_traitsIcEENS1_IcEEEEcEEPvEEEEE10deallocateB7v160006ERSC_PSB_m, symObjAddr: 0x10C38, symBinAddr: 0x100011734, symSize: 0x34 }
  - { offsetInCU: 0x2307A, offset: 0x2307A, size: 0x8, addend: 0x0, symName: __ZNSt3__19allocatorINS_11__hash_nodeINS_17__hash_value_typeINS_12basic_stringIcNS_11char_traitsIcEENS0_IcEEEEcEEPvEEE10deallocateB7v160006EPSA_m, symObjAddr: 0x10C6C, symBinAddr: 0x100011768, symSize: 0x74 }
  - { offsetInCU: 0x230BC, offset: 0x230BC, size: 0x8, addend: 0x0, symName: __ZNSt3__113unordered_mapINS_12basic_stringIcNS_11char_traitsIcEENS_9allocatorIcEEEEcNS_4hashIS6_EENS_8equal_toIS6_EENS4_INS_4pairIKS6_cEEEEEC2B7v160006Ev, symObjAddr: 0x10CE0, symBinAddr: 0x1000117DC, symSize: 0x64 }
  - { offsetInCU: 0x230E6, offset: 0x230E6, size: 0x8, addend: 0x0, symName: __ZNSt3__112__hash_tableINS_17__hash_value_typeINS_12basic_stringIcNS_11char_traitsIcEENS_9allocatorIcEEEEcEENS_22__unordered_map_hasherIS7_S8_NS_4hashIS7_EENS_8equal_toIS7_EELb1EEENS_21__unordered_map_equalIS7_S8_SD_SB_Lb1EEENS5_IS8_EEEC1Ev, symObjAddr: 0x10D44, symBinAddr: 0x100011840, symSize: 0x2C }
  - { offsetInCU: 0x23112, offset: 0x23112, size: 0x8, addend: 0x0, symName: __ZNSt3__112__hash_tableINS_17__hash_value_typeINS_12basic_stringIcNS_11char_traitsIcEENS_9allocatorIcEEEEcEENS_22__unordered_map_hasherIS7_S8_NS_4hashIS7_EENS_8equal_toIS7_EELb1EEENS_21__unordered_map_equalIS7_S8_SD_SB_Lb1EEENS5_IS8_EEED1Ev, symObjAddr: 0x10D80, symBinAddr: 0x10001187C, symSize: 0x2C }
  - { offsetInCU: 0x2313E, offset: 0x2313E, size: 0x8, addend: 0x0, symName: __ZNSt3__112__hash_tableINS_17__hash_value_typeINS_12basic_stringIcNS_11char_traitsIcEENS_9allocatorIcEEEEcEENS_22__unordered_map_hasherIS7_S8_NS_4hashIS7_EENS_8equal_toIS7_EELb1EEENS_21__unordered_map_equalIS7_S8_SD_SB_Lb1EEENS5_IS8_EEEC2Ev, symObjAddr: 0x10DAC, symBinAddr: 0x1000118A8, symSize: 0xA4 }
  - { offsetInCU: 0x2316A, offset: 0x2316A, size: 0x8, addend: 0x0, symName: __ZNSt3__110unique_ptrIA_PNS_16__hash_node_baseIPNS_11__hash_nodeINS_17__hash_value_typeINS_12basic_stringIcNS_11char_traitsIcEENS_9allocatorIcEEEEcEEPvEEEENS_25__bucket_list_deallocatorINS7_ISF_EEEEEC1B7v160006ILb1EvEEv, symObjAddr: 0x10E50, symBinAddr: 0x10001194C, symSize: 0x2C }
  - { offsetInCU: 0x2319F, offset: 0x2319F, size: 0x8, addend: 0x0, symName: __ZNSt3__117__compressed_pairINS_16__hash_node_baseIPNS_11__hash_nodeINS_17__hash_value_typeINS_12basic_stringIcNS_11char_traitsIcEENS_9allocatorIcEEEEcEEPvEEEENS7_ISC_EEEC1B7v160006ILb1EvEEv, symObjAddr: 0x10E7C, symBinAddr: 0x100011978, symSize: 0x2C }
  - { offsetInCU: 0x231D4, offset: 0x231D4, size: 0x8, addend: 0x0, symName: __ZNSt3__117__compressed_pairImNS_22__unordered_map_hasherINS_12basic_stringIcNS_11char_traitsIcEENS_9allocatorIcEEEENS_17__hash_value_typeIS7_cEENS_4hashIS7_EENS_8equal_toIS7_EELb1EEEEC1B7v160006IiNS_18__default_init_tagEEEOT_OT0_, symObjAddr: 0x10EA8, symBinAddr: 0x1000119A4, symSize: 0x3C }
  - { offsetInCU: 0x2322C, offset: 0x2322C, size: 0x8, addend: 0x0, symName: __ZNSt3__117__compressed_pairIfNS_21__unordered_map_equalINS_12basic_stringIcNS_11char_traitsIcEENS_9allocatorIcEEEENS_17__hash_value_typeIS7_cEENS_8equal_toIS7_EENS_4hashIS7_EELb1EEEEC1B7v160006IfNS_18__default_init_tagEEEOT_OT0_, symObjAddr: 0x10EE4, symBinAddr: 0x1000119E0, symSize: 0x3C }
  - { offsetInCU: 0x23284, offset: 0x23284, size: 0x8, addend: 0x0, symName: __ZNSt3__110unique_ptrIA_PNS_16__hash_node_baseIPNS_11__hash_nodeINS_17__hash_value_typeINS_12basic_stringIcNS_11char_traitsIcEENS_9allocatorIcEEEEcEEPvEEEENS_25__bucket_list_deallocatorINS7_ISF_EEEEED1B7v160006Ev, symObjAddr: 0x10F20, symBinAddr: 0x100011A1C, symSize: 0x2C }
  - { offsetInCU: 0x232AE, offset: 0x232AE, size: 0x8, addend: 0x0, symName: __ZNSt3__110unique_ptrIA_PNS_16__hash_node_baseIPNS_11__hash_nodeINS_17__hash_value_typeINS_12basic_stringIcNS_11char_traitsIcEENS_9allocatorIcEEEEcEEPvEEEENS_25__bucket_list_deallocatorINS7_ISF_EEEEEC2B7v160006ILb1EvEEv, symObjAddr: 0x10F4C, symBinAddr: 0x100011A48, symSize: 0x50 }
  - { offsetInCU: 0x232E3, offset: 0x232E3, size: 0x8, addend: 0x0, symName: __ZNSt3__117__compressed_pairIPPNS_16__hash_node_baseIPNS_11__hash_nodeINS_17__hash_value_typeINS_12basic_stringIcNS_11char_traitsIcEENS_9allocatorIcEEEEcEEPvEEEENS_25__bucket_list_deallocatorINS7_ISF_EEEEEC1B7v160006INS_16__value_init_tagESM_EEOT_OT0_, symObjAddr: 0x10F9C, symBinAddr: 0x100011A98, symSize: 0x3C }
  - { offsetInCU: 0x2333B, offset: 0x2333B, size: 0x8, addend: 0x0, symName: __ZNSt3__117__compressed_pairIPPNS_16__hash_node_baseIPNS_11__hash_nodeINS_17__hash_value_typeINS_12basic_stringIcNS_11char_traitsIcEENS_9allocatorIcEEEEcEEPvEEEENS_25__bucket_list_deallocatorINS7_ISF_EEEEEC2B7v160006INS_16__value_init_tagESM_EEOT_OT0_, symObjAddr: 0x10FD8, symBinAddr: 0x100011AD4, symSize: 0x40 }
  - { offsetInCU: 0x23393, offset: 0x23393, size: 0x8, addend: 0x0, symName: __ZNSt3__122__compressed_pair_elemIPPNS_16__hash_node_baseIPNS_11__hash_nodeINS_17__hash_value_typeINS_12basic_stringIcNS_11char_traitsIcEENS_9allocatorIcEEEEcEEPvEEEELi0ELb0EEC2B7v160006ENS_16__value_init_tagE, symObjAddr: 0x11018, symBinAddr: 0x100011B14, symSize: 0x18 }
  - { offsetInCU: 0x233C8, offset: 0x233C8, size: 0x8, addend: 0x0, symName: __ZNSt3__122__compressed_pair_elemINS_25__bucket_list_deallocatorINS_9allocatorIPNS_16__hash_node_baseIPNS_11__hash_nodeINS_17__hash_value_typeINS_12basic_stringIcNS_11char_traitsIcEENS2_IcEEEEcEEPvEEEEEEEELi1ELb0EEC2B7v160006ENS_16__value_init_tagE, symObjAddr: 0x11030, symBinAddr: 0x100011B2C, symSize: 0x2C }
  - { offsetInCU: 0x233FD, offset: 0x233FD, size: 0x8, addend: 0x0, symName: __ZNSt3__125__bucket_list_deallocatorINS_9allocatorIPNS_16__hash_node_baseIPNS_11__hash_nodeINS_17__hash_value_typeINS_12basic_stringIcNS_11char_traitsIcEENS1_IcEEEEcEEPvEEEEEEEC1B7v160006Ev, symObjAddr: 0x1105C, symBinAddr: 0x100011B58, symSize: 0x2C }
  - { offsetInCU: 0x23427, offset: 0x23427, size: 0x8, addend: 0x0, symName: __ZNSt3__125__bucket_list_deallocatorINS_9allocatorIPNS_16__hash_node_baseIPNS_11__hash_nodeINS_17__hash_value_typeINS_12basic_stringIcNS_11char_traitsIcEENS1_IcEEEEcEEPvEEEEEEEC2B7v160006Ev, symObjAddr: 0x11088, symBinAddr: 0x100011B84, symSize: 0x38 }
  - { offsetInCU: 0x23451, offset: 0x23451, size: 0x8, addend: 0x0, symName: __ZNSt3__117__compressed_pairImNS_9allocatorIPNS_16__hash_node_baseIPNS_11__hash_nodeINS_17__hash_value_typeINS_12basic_stringIcNS_11char_traitsIcEENS1_IcEEEEcEEPvEEEEEEEC1B7v160006IiNS_18__default_init_tagEEEOT_OT0_, symObjAddr: 0x110C0, symBinAddr: 0x100011BBC, symSize: 0x3C }
  - { offsetInCU: 0x234A9, offset: 0x234A9, size: 0x8, addend: 0x0, symName: __ZNSt3__117__compressed_pairImNS_9allocatorIPNS_16__hash_node_baseIPNS_11__hash_nodeINS_17__hash_value_typeINS_12basic_stringIcNS_11char_traitsIcEENS1_IcEEEEcEEPvEEEEEEEC2B7v160006IiNS_18__default_init_tagEEEOT_OT0_, symObjAddr: 0x110FC, symBinAddr: 0x100011BF8, symSize: 0x40 }
  - { offsetInCU: 0x23501, offset: 0x23501, size: 0x8, addend: 0x0, symName: __ZNSt3__122__compressed_pair_elemINS_9allocatorIPNS_16__hash_node_baseIPNS_11__hash_nodeINS_17__hash_value_typeINS_12basic_stringIcNS_11char_traitsIcEENS1_IcEEEEcEEPvEEEEEELi1ELb1EEC2B7v160006ENS_18__default_init_tagE, symObjAddr: 0x1113C, symBinAddr: 0x100011C38, symSize: 0x2C }
  - { offsetInCU: 0x23536, offset: 0x23536, size: 0x8, addend: 0x0, symName: __ZNSt3__19allocatorIPNS_16__hash_node_baseIPNS_11__hash_nodeINS_17__hash_value_typeINS_12basic_stringIcNS_11char_traitsIcEENS0_IcEEEEcEEPvEEEEEC2B7v160006Ev, symObjAddr: 0x11168, symBinAddr: 0x100011C64, symSize: 0x2C }
  - { offsetInCU: 0x23560, offset: 0x23560, size: 0x8, addend: 0x0, symName: __ZNSt3__116__non_trivial_ifILb1ENS_9allocatorIPNS_16__hash_node_baseIPNS_11__hash_nodeINS_17__hash_value_typeINS_12basic_stringIcNS_11char_traitsIcEENS1_IcEEEEcEEPvEEEEEEEC2B7v160006Ev, symObjAddr: 0x11194, symBinAddr: 0x100011C90, symSize: 0x14 }
  - { offsetInCU: 0x2358A, offset: 0x2358A, size: 0x8, addend: 0x0, symName: __ZNSt3__117__compressed_pairINS_16__hash_node_baseIPNS_11__hash_nodeINS_17__hash_value_typeINS_12basic_stringIcNS_11char_traitsIcEENS_9allocatorIcEEEEcEEPvEEEENS7_ISC_EEEC2B7v160006ILb1EvEEv, symObjAddr: 0x111A8, symBinAddr: 0x100011CA4, symSize: 0x34 }
  - { offsetInCU: 0x235BF, offset: 0x235BF, size: 0x8, addend: 0x0, symName: __ZNSt3__122__compressed_pair_elemINS_16__hash_node_baseIPNS_11__hash_nodeINS_17__hash_value_typeINS_12basic_stringIcNS_11char_traitsIcEENS_9allocatorIcEEEEcEEPvEEEELi0ELb0EEC2B7v160006ENS_16__value_init_tagE, symObjAddr: 0x111DC, symBinAddr: 0x100011CD8, symSize: 0x2C }
  - { offsetInCU: 0x235F4, offset: 0x235F4, size: 0x8, addend: 0x0, symName: __ZNSt3__122__compressed_pair_elemINS_9allocatorINS_11__hash_nodeINS_17__hash_value_typeINS_12basic_stringIcNS_11char_traitsIcEENS1_IcEEEEcEEPvEEEELi1ELb1EEC2B7v160006ENS_16__value_init_tagE, symObjAddr: 0x11208, symBinAddr: 0x100011D04, symSize: 0x2C }
  - { offsetInCU: 0x23629, offset: 0x23629, size: 0x8, addend: 0x0, symName: __ZNSt3__116__hash_node_baseIPNS_11__hash_nodeINS_17__hash_value_typeINS_12basic_stringIcNS_11char_traitsIcEENS_9allocatorIcEEEEcEEPvEEEC1B7v160006Ev, symObjAddr: 0x11234, symBinAddr: 0x100011D30, symSize: 0x2C }
  - { offsetInCU: 0x23653, offset: 0x23653, size: 0x8, addend: 0x0, symName: __ZNSt3__116__hash_node_baseIPNS_11__hash_nodeINS_17__hash_value_typeINS_12basic_stringIcNS_11char_traitsIcEENS_9allocatorIcEEEEcEEPvEEEC2B7v160006Ev, symObjAddr: 0x11260, symBinAddr: 0x100011D5C, symSize: 0x18 }
  - { offsetInCU: 0x2367D, offset: 0x2367D, size: 0x8, addend: 0x0, symName: __ZNSt3__19allocatorINS_11__hash_nodeINS_17__hash_value_typeINS_12basic_stringIcNS_11char_traitsIcEENS0_IcEEEEcEEPvEEEC2B7v160006Ev, symObjAddr: 0x11278, symBinAddr: 0x100011D74, symSize: 0x2C }
  - { offsetInCU: 0x236A7, offset: 0x236A7, size: 0x8, addend: 0x0, symName: __ZNSt3__116__non_trivial_ifILb1ENS_9allocatorINS_11__hash_nodeINS_17__hash_value_typeINS_12basic_stringIcNS_11char_traitsIcEENS1_IcEEEEcEEPvEEEEEC2B7v160006Ev, symObjAddr: 0x112A4, symBinAddr: 0x100011DA0, symSize: 0x14 }
  - { offsetInCU: 0x236D1, offset: 0x236D1, size: 0x8, addend: 0x0, symName: __ZNSt3__117__compressed_pairImNS_22__unordered_map_hasherINS_12basic_stringIcNS_11char_traitsIcEENS_9allocatorIcEEEENS_17__hash_value_typeIS7_cEENS_4hashIS7_EENS_8equal_toIS7_EELb1EEEEC2B7v160006IiNS_18__default_init_tagEEEOT_OT0_, symObjAddr: 0x112B8, symBinAddr: 0x100011DB4, symSize: 0x40 }
  - { offsetInCU: 0x23729, offset: 0x23729, size: 0x8, addend: 0x0, symName: __ZNSt3__122__compressed_pair_elemINS_22__unordered_map_hasherINS_12basic_stringIcNS_11char_traitsIcEENS_9allocatorIcEEEENS_17__hash_value_typeIS7_cEENS_4hashIS7_EENS_8equal_toIS7_EELb1EEELi1ELb1EEC2B7v160006ENS_18__default_init_tagE, symObjAddr: 0x112F8, symBinAddr: 0x100011DF4, symSize: 0x2C }
  - { offsetInCU: 0x2375E, offset: 0x2375E, size: 0x8, addend: 0x0, symName: __ZNSt3__122__unordered_map_hasherINS_12basic_stringIcNS_11char_traitsIcEENS_9allocatorIcEEEENS_17__hash_value_typeIS6_cEENS_4hashIS6_EENS_8equal_toIS6_EELb1EEC2B7v160006Ev, symObjAddr: 0x11324, symBinAddr: 0x100011E20, symSize: 0x14 }
  - { offsetInCU: 0x23788, offset: 0x23788, size: 0x8, addend: 0x0, symName: __ZNSt3__117__compressed_pairIfNS_21__unordered_map_equalINS_12basic_stringIcNS_11char_traitsIcEENS_9allocatorIcEEEENS_17__hash_value_typeIS7_cEENS_8equal_toIS7_EENS_4hashIS7_EELb1EEEEC2B7v160006IfNS_18__default_init_tagEEEOT_OT0_, symObjAddr: 0x11338, symBinAddr: 0x100011E34, symSize: 0x40 }
  - { offsetInCU: 0x237E0, offset: 0x237E0, size: 0x8, addend: 0x0, symName: __ZNSt3__122__compressed_pair_elemINS_21__unordered_map_equalINS_12basic_stringIcNS_11char_traitsIcEENS_9allocatorIcEEEENS_17__hash_value_typeIS7_cEENS_8equal_toIS7_EENS_4hashIS7_EELb1EEELi1ELb1EEC2B7v160006ENS_18__default_init_tagE, symObjAddr: 0x11378, symBinAddr: 0x100011E74, symSize: 0x2C }
  - { offsetInCU: 0x23815, offset: 0x23815, size: 0x8, addend: 0x0, symName: __ZNSt3__121__unordered_map_equalINS_12basic_stringIcNS_11char_traitsIcEENS_9allocatorIcEEEENS_17__hash_value_typeIS6_cEENS_8equal_toIS6_EENS_4hashIS6_EELb1EEC2B7v160006Ev, symObjAddr: 0x113A4, symBinAddr: 0x100011EA0, symSize: 0x14 }
  - { offsetInCU: 0x2383F, offset: 0x2383F, size: 0x8, addend: 0x0, symName: __ZNSt3__110unique_ptrIA_PNS_16__hash_node_baseIPNS_11__hash_nodeINS_17__hash_value_typeINS_12basic_stringIcNS_11char_traitsIcEENS_9allocatorIcEEEEcEEPvEEEENS_25__bucket_list_deallocatorINS7_ISF_EEEEED2B7v160006Ev, symObjAddr: 0x113B8, symBinAddr: 0x100011EB4, symSize: 0x30 }
  - { offsetInCU: 0x23869, offset: 0x23869, size: 0x8, addend: 0x0, symName: __ZNSt3__110unique_ptrIA_PNS_16__hash_node_baseIPNS_11__hash_nodeINS_17__hash_value_typeINS_12basic_stringIcNS_11char_traitsIcEENS_9allocatorIcEEEEcEEPvEEEENS_25__bucket_list_deallocatorINS7_ISF_EEEEE5resetB7v160006EDn, symObjAddr: 0x113E8, symBinAddr: 0x100011EE4, symSize: 0x6C }
  - { offsetInCU: 0x238A9, offset: 0x238A9, size: 0x8, addend: 0x0, symName: __ZNSt3__112__hash_tableINS_17__hash_value_typeINS_12basic_stringIcNS_11char_traitsIcEENS_9allocatorIcEEEEcEENS_22__unordered_map_hasherIS7_S8_NS_4hashIS7_EENS_8equal_toIS7_EELb1EEENS_21__unordered_map_equalIS7_S8_SD_SB_Lb1EEENS5_IS8_EEED2Ev, symObjAddr: 0x11454, symBinAddr: 0x100011F50, symSize: 0x80 }
  - { offsetInCU: 0x238D5, offset: 0x238D5, size: 0x8, addend: 0x0, symName: __ZNSt3__112__hash_tableINS_17__hash_value_typeINS_12basic_stringIcNS_11char_traitsIcEENS_9allocatorIcEEEEcEENS_22__unordered_map_hasherIS7_S8_NS_4hashIS7_EENS_8equal_toIS7_EELb1EEENS_21__unordered_map_equalIS7_S8_SD_SB_Lb1EEENS5_IS8_EEE17__deallocate_nodeEPNS_16__hash_node_baseIPNS_11__hash_nodeIS8_PvEEEE, symObjAddr: 0x114D4, symBinAddr: 0x100011FD0, symSize: 0xBC }
  - { offsetInCU: 0x2393F, offset: 0x2393F, size: 0x8, addend: 0x0, symName: __ZNSt3__116allocator_traitsINS_9allocatorINS_11__hash_nodeINS_17__hash_value_typeINS_12basic_stringIcNS_11char_traitsIcEENS1_IcEEEEcEEPvEEEEE7destroyB7v160006INS_4pairIKS8_cEEvvEEvRSC_PT_, symObjAddr: 0x115A0, symBinAddr: 0x10001209C, symSize: 0x28 }
  - { offsetInCU: 0x23979, offset: 0x23979, size: 0x8, addend: 0x0, symName: __ZNSt3__122__hash_key_value_typesINS_17__hash_value_typeINS_12basic_stringIcNS_11char_traitsIcEENS_9allocatorIcEEEEcEEE9__get_ptrB7v160006ERS8_, symObjAddr: 0x115C8, symBinAddr: 0x1000120C4, symSize: 0x24 }
  - { offsetInCU: 0x2399C, offset: 0x2399C, size: 0x8, addend: 0x0, symName: __ZNSt3__14pairIKNS_12basic_stringIcNS_11char_traitsIcEENS_9allocatorIcEEEEcED1Ev, symObjAddr: 0x115EC, symBinAddr: 0x1000120E8, symSize: 0x2C }
  - { offsetInCU: 0x239C8, offset: 0x239C8, size: 0x8, addend: 0x0, symName: __ZNSt3__14pairIKNS_12basic_stringIcNS_11char_traitsIcEENS_9allocatorIcEEEEcED2Ev, symObjAddr: 0x11618, symBinAddr: 0x100012114, symSize: 0x2C }
  - { offsetInCU: 0x239F4, offset: 0x239F4, size: 0x8, addend: 0x0, symName: __ZNSt3__113unordered_mapINS_12basic_stringIcNS_11char_traitsIcEENS_9allocatorIcEEEEcNS_4hashIS6_EENS_8equal_toIS6_EENS4_INS_4pairIKS6_cEEEEED2B7v160006Ev, symObjAddr: 0x11644, symBinAddr: 0x100012140, symSize: 0x2C }
  - { offsetInCU: 0x23A1E, offset: 0x23A1E, size: 0x8, addend: 0x0, symName: __ZNSt3__16bitsetILm8EEC2B7v160006Ey, symObjAddr: 0x11670, symBinAddr: 0x10001216C, symSize: 0x34 }
  - { offsetInCU: 0x23A57, offset: 0x23A57, size: 0x8, addend: 0x0, symName: __ZNSt3__18__bitsetILm1ELm8EEC2Ey, symObjAddr: 0x116A4, symBinAddr: 0x1000121A0, symSize: 0x20 }
  - { offsetInCU: 0x23A92, offset: 0x23A92, size: 0x8, addend: 0x0, symName: __ZNKSt3__16bitsetILm8EE9to_stringB7v160006IcNS_11char_traitsIcEENS_9allocatorIcEEEENS_12basic_stringIT_T0_T1_EES8_S8_, symObjAddr: 0x116C4, symBinAddr: 0x1000121C0, symSize: 0x140 }
  - { offsetInCU: 0x23B18, offset: 0x23B18, size: 0x8, addend: 0x0, symName: __ZNKSt3__16bitsetILm8EEixB7v160006Em, symObjAddr: 0x11804, symBinAddr: 0x100012300, symSize: 0x3C }
  - { offsetInCU: 0x23B4D, offset: 0x23B4D, size: 0x8, addend: 0x0, symName: __ZNKSt3__121__bit_const_referenceINS_8__bitsetILm1ELm8EEEEcvbB7v160006Ev, symObjAddr: 0x11840, symBinAddr: 0x10001233C, symSize: 0x2C }
  - { offsetInCU: 0x23B73, offset: 0x23B73, size: 0x8, addend: 0x0, symName: __ZNSt3__112basic_stringIcNS_11char_traitsIcEENS_9allocatorIcEEEixB7v160006Em, symObjAddr: 0x1186C, symBinAddr: 0x100012368, symSize: 0x30 }
  - { offsetInCU: 0x23BA8, offset: 0x23BA8, size: 0x8, addend: 0x0, symName: __ZNKSt3__18__bitsetILm1ELm8EE10__make_refB7v160006Em, symObjAddr: 0x1189C, symBinAddr: 0x100012398, symSize: 0x40 }
  - { offsetInCU: 0x23BDD, offset: 0x23BDD, size: 0x8, addend: 0x0, symName: __ZNSt3__121__bit_const_referenceINS_8__bitsetILm1ELm8EEEEC1B7v160006EPKmm, symObjAddr: 0x118DC, symBinAddr: 0x1000123D8, symSize: 0x3C }
  - { offsetInCU: 0x23C23, offset: 0x23C23, size: 0x8, addend: 0x0, symName: __ZNSt3__121__bit_const_referenceINS_8__bitsetILm1ELm8EEEEC2B7v160006EPKmm, symObjAddr: 0x11918, symBinAddr: 0x100012414, symSize: 0x2C }
  - { offsetInCU: 0x23C73, offset: 0x23C73, size: 0x8, addend: 0x0, symName: __ZNKSt3__16__lessIiiEclB7v160006ERKiS3_, symObjAddr: 0x11998, symBinAddr: 0x100012494, symSize: 0x34 }
...
